((dp0
I1
(lp1
I0
aI1
aI4
asI2
(lp2
I3
aI0
aI2
asI3
(lp3
I3
aI1
aI1
asI4
(lp4
I3
aI0
aI2
asI5
(lp5
I2
aI2
aI1
asI6
(lp6
I0
aI2
aI3
asI7
(lp7
I2
aI1
aI2
asI8
(lp8
I2
aI1
aI2
asI9
(lp9
I0
aI2
aI3
asI10
(lp10
I0
aI1
aI4
asI11
(lp11
I0
aI2
aI3
asI12
(lp12
I1
aI0
aI4
asI13
(lp13
I2
aI0
aI3
asI14
(lp14
I0
aI1
aI4
asI15
(lp15
I0
aI1
aI4
asI16
(lp16
I0
aI1
aI4
asI17
(lp17
I0
aI0
aI5
asI18
(lp18
I0
aI1
aI4
asI19
(lp19
I0
aI0
aI5
asI20
(lp20
I4
aI1
aI0
asI21
(lp21
I1
aI1
aI3
asI22
(lp22
I0
aI1
aI4
asI23
(lp23
I1
aI2
aI2
asI24
(lp24
I0
aI2
aI3
asI25
(lp25
I0
aI1
aI4
asI26
(lp26
I2
aI1
aI2
asI27
(lp27
I1
aI4
aI0
asI28
(lp28
I2
aI1
aI2
asI29
(lp29
I0
aI1
aI4
asI30
(lp30
I0
aI1
aI4
asI31
(lp31
I3
aI1
aI1
asI32
(lp32
I0
aI1
aI4
asI33
(lp33
I1
aI0
aI4
asI34
(lp34
I1
aI0
aI4
asI35
(lp35
I0
aI2
aI3
asI36
(lp36
I0
aI1
aI4
asI37
(lp37
I4
aI0
aI0
asI38
(lp38
I0
aI1
aI4
asI39
(lp39
I1
aI1
aI3
asI40
(lp40
I0
aI3
aI2
asI41
(lp41
I1
aI1
aI3
asI42
(lp42
I0
aI1
aI4
asI43
(lp43
I0
aI1
aI4
asI44
(lp44
I1
aI1
aI3
asI45
(lp45
I0
aI1
aI4
asI46
(lp46
I0
aI1
aI4
asI47
(lp47
I0
aI2
aI3
asI48
(lp48
I0
aI0
aI5
asI49
(lp49
I2
aI1
aI2
asI50
(lp50
I1
aI4
aI0
asI51
(lp51
I0
aI1
aI4
asI52
(lp52
I0
aI0
aI5
asI53
(lp53
I0
aI2
aI3
asI54
(lp54
I0
aI2
aI3
asI55
(lp55
I0
aI0
aI5
asI56
(lp56
I1
aI1
aI3
asI57
(lp57
I0
aI1
aI4
asI58
(lp58
I0
aI2
aI3
asI59
(lp59
I0
aI0
aI5
asI60
(lp60
I0
aI2
aI3
asI61
(lp61
I0
aI0
aI5
asI62
(lp62
I0
aI1
aI4
asI63
(lp63
I0
aI2
aI3
asI64
(lp64
I0
aI0
aI5
asI65
(lp65
I0
aI0
aI5
asI66
(lp66
I0
aI1
aI4
asI67
(lp67
I0
aI0
aI5
asI68
(lp68
I0
aI0
aI5
asI69
(lp69
I0
aI2
aI3
asI70
(lp70
I0
aI3
aI2
asI71
(lp71
I1
aI2
aI2
asI72
(lp72
I0
aI2
aI3
asI73
(lp73
I0
aI3
aI2
asI74
(lp74
I0
aI5
aI0
asI75
(lp75
I2
aI0
aI2
asI76
(lp76
I1
aI1
aI3
asI77
(lp77
I0
aI2
aI3
asI78
(lp78
I0
aI2
aI3
asI79
(lp79
I5
aI0
aI0
asI80
(lp80
I0
aI4
aI1
asI81
(lp81
I0
aI2
aI3
asI82
(lp82
I0
aI0
aI5
asI83
(lp83
I0
aI2
aI3
asI84
(lp84
I0
aI5
aI0
asI85
(lp85
I0
aI2
aI3
asI86
(lp86
I0
aI3
aI2
asI87
(lp87
I0
aI4
aI1
asI88
(lp88
I0
aI1
aI4
asI89
(lp89
I3
aI2
aI0
asI90
(lp90
I1
aI4
aI0
asI91
(lp91
I0
aI3
aI2
asI92
(lp92
I1
aI2
aI2
asI93
(lp93
I1
aI2
aI1
asI94
(lp94
I0
aI1
aI4
asI95
(lp95
I0
aI3
aI2
asI96
(lp96
I2
aI1
aI2
asI97
(lp97
I0
aI2
aI3
asI98
(lp98
I1
aI2
aI2
asI99
(lp99
I0
aI2
aI3
asI100
(lp100
I2
aI1
aI2
asI101
(lp101
I0
aI2
aI3
asI102
(lp102
I0
aI1
aI4
asI103
(lp103
I0
aI2
aI3
asI104
(lp104
I0
aI1
aI4
asI105
(lp105
I0
aI0
aI5
asI106
(lp106
I0
aI1
aI4
asI107
(lp107
I0
aI0
aI5
asI108
(lp108
I0
aI1
aI4
asI109
(lp109
I1
aI0
aI4
asI110
(lp110
I0
aI1
aI4
asI111
(lp111
I0
aI0
aI5
asI112
(lp112
I0
aI0
aI5
asI113
(lp113
I0
aI0
aI5
asI114
(lp114
I0
aI1
aI4
asI115
(lp115
I1
aI0
aI4
asI116
(lp116
I1
aI0
aI4
asI117
(lp117
I0
aI2
aI3
asI118
(lp118
I0
aI2
aI3
asI119
(lp119
I0
aI2
aI3
asI120
(lp120
I0
aI3
aI2
asI121
(lp121
I0
aI2
aI3
asI122
(lp122
I1
aI2
aI2
asI123
(lp123
I1
aI1
aI3
asI124
(lp124
I1
aI1
aI3
asI125
(lp125
I2
aI2
aI1
asI126
(lp126
I1
aI2
aI2
asI127
(lp127
I1
aI2
aI2
asI128
(lp128
I0
aI1
aI4
asI129
(lp129
I0
aI2
aI3
asI130
(lp130
I0
aI2
aI3
asI131
(lp131
I0
aI3
aI2
asI132
(lp132
I2
aI2
aI1
asI133
(lp133
I0
aI4
aI1
asI134
(lp134
I0
aI3
aI2
asI135
(lp135
I0
aI4
aI1
asI136
(lp136
I1
aI1
aI3
asI137
(lp137
I1
aI2
aI2
asI138
(lp138
I2
aI0
aI3
asI139
(lp139
I0
aI2
aI3
asI140
(lp140
I0
aI1
aI4
asI141
(lp141
I0
aI1
aI4
asI142
(lp142
I0
aI1
aI4
asI143
(lp143
I0
aI2
aI3
asI144
(lp144
I1
aI1
aI3
asI145
(lp145
I0
aI2
aI3
asI146
(lp146
I0
aI1
aI4
asI147
(lp147
I0
aI1
aI4
asI148
(lp148
I0
aI0
aI5
asI149
(lp149
I0
aI2
aI3
asI150
(lp150
I0
aI1
aI4
asI151
(lp151
I1
aI1
aI3
asI152
(lp152
I1
aI0
aI4
asI153
(lp153
I0
aI3
aI2
asI154
(lp154
I0
aI2
aI2
asI155
(lp155
I1
aI1
aI3
asI156
(lp156
I0
aI1
aI4
asI157
(lp157
I0
aI0
aI5
asI158
(lp158
I0
aI3
aI2
asI159
(lp159
I0
aI2
aI2
asI160
(lp160
I0
aI1
aI4
asI161
(lp161
I0
aI1
aI4
asI162
(lp162
I1
aI2
aI2
asI163
(lp163
I2
aI2
aI1
asI164
(lp164
I0
aI0
aI5
asI165
(lp165
I0
aI1
aI4
asI166
(lp166
I1
aI2
aI2
asI167
(lp167
I0
aI0
aI5
asI168
(lp168
I0
aI3
aI2
asI169
(lp169
I0
aI2
aI3
asI170
(lp170
I0
aI2
aI3
asI171
(lp171
I0
aI1
aI4
asI172
(lp172
I0
aI3
aI2
asI173
(lp173
I2
aI0
aI3
asI174
(lp174
I0
aI3
aI2
asI175
(lp175
I0
aI3
aI2
asI176
(lp176
I1
aI0
aI4
asI177
(lp177
I0
aI1
aI4
asI178
(lp178
I1
aI0
aI4
asI179
(lp179
I0
aI3
aI2
asI180
(lp180
I0
aI1
aI4
asI181
(lp181
I1
aI0
aI4
asI182
(lp182
I0
aI0
aI5
asI183
(lp183
I0
aI1
aI4
asI184
(lp184
I0
aI0
aI5
asI185
(lp185
I0
aI1
aI4
asI186
(lp186
I0
aI0
aI5
asI187
(lp187
I0
aI1
aI4
asI188
(lp188
I0
aI1
aI4
asI189
(lp189
I0
aI3
aI2
asI190
(lp190
I0
aI1
aI4
asI191
(lp191
I0
aI1
aI3
asI192
(lp192
I0
aI0
aI5
asI193
(lp193
I0
aI4
aI1
asI194
(lp194
I0
aI0
aI5
asI195
(lp195
I0
aI1
aI4
asI196
(lp196
I0
aI2
aI3
asI197
(lp197
I0
aI3
aI2
asI198
(lp198
I0
aI0
aI5
asI199
(lp199
I1
aI2
aI2
asI200
(lp200
I0
aI1
aI4
asI201
(lp201
I0
aI0
aI5
asI202
(lp202
I0
aI1
aI4
asI203
(lp203
I0
aI2
aI3
asI204
(lp204
I0
aI0
aI5
asI205
(lp205
I0
aI2
aI3
asI206
(lp206
I0
aI0
aI5
asI207
(lp207
I1
aI2
aI2
asI208
(lp208
I0
aI2
aI3
asI209
(lp209
I2
aI2
aI1
asI210
(lp210
I0
aI2
aI3
asI211
(lp211
I1
aI0
aI4
asI212
(lp212
I1
aI0
aI4
asI213
(lp213
I0
aI2
aI3
asI214
(lp214
I0
aI4
aI1
asI215
(lp215
I0
aI1
aI4
asI216
(lp216
I0
aI1
aI4
asI217
(lp217
I4
aI1
aI0
asI218
(lp218
I0
aI0
aI5
asI219
(lp219
I0
aI1
aI4
asI220
(lp220
I0
aI2
aI3
asI221
(lp221
I1
aI1
aI3
asI222
(lp222
I0
aI3
aI2
asI223
(lp223
I1
aI1
aI3
asI224
(lp224
I0
aI3
aI2
asI225
(lp225
I0
aI1
aI4
asI226
(lp226
I0
aI2
aI3
asI227
(lp227
I0
aI1
aI4
asI228
(lp228
I0
aI0
aI5
asI229
(lp229
I2
aI1
aI2
asI230
(lp230
I0
aI2
aI3
asI231
(lp231
I1
aI1
aI3
asI232
(lp232
I1
aI0
aI4
asI233
(lp233
I1
aI1
aI3
asI234
(lp234
I2
aI0
aI3
asI235
(lp235
I3
aI2
aI0
asI236
(lp236
I1
aI1
aI3
asI237
(lp237
I3
aI1
aI1
asI238
(lp238
I0
aI1
aI4
asI239
(lp239
I0
aI1
aI4
asI240
(lp240
I2
aI2
aI1
asI241
(lp241
I0
aI0
aI5
asI242
(lp242
I4
aI1
aI0
asI243
(lp243
I0
aI0
aI5
asI244
(lp244
I1
aI1
aI3
asI245
(lp245
I0
aI5
aI0
asI246
(lp246
I2
aI0
aI3
asI247
(lp247
I3
aI1
aI1
asI248
(lp248
I3
aI2
aI0
asI249
(lp249
I0
aI1
aI4
asI250
(lp250
I3
aI1
aI1
asI251
(lp251
I0
aI1
aI4
asI252
(lp252
I2
aI1
aI2
asI253
(lp253
I5
aI0
aI0
asI254
(lp254
I1
aI0
aI4
asI255
(lp255
I3
aI1
aI1
asI256
(lp256
I1
aI3
aI1
asI257
(lp257
I4
aI1
aI0
asI258
(lp258
I4
aI0
aI1
asI259
(lp259
I4
aI1
aI0
asI260
(lp260
I3
aI0
aI2
asI261
(lp261
I2
aI0
aI3
asI262
(lp262
I1
aI1
aI3
asI263
(lp263
I3
aI0
aI2
asI264
(lp264
I4
aI0
aI1
asI265
(lp265
I3
aI0
aI2
asI266
(lp266
I3
aI0
aI2
asI267
(lp267
I5
aI0
aI0
asI268
(lp268
I2
aI1
aI2
asI269
(lp269
I4
aI1
aI0
asI270
(lp270
I5
aI0
aI0
asI271
(lp271
I5
aI0
aI0
asI272
(lp272
I3
aI2
aI0
asI273
(lp273
I4
aI0
aI1
asI274
(lp274
I1
aI2
aI2
asI275
(lp275
I5
aI0
aI0
asI276
(lp276
I0
aI1
aI4
asI277
(lp277
I0
aI1
aI4
asI278
(lp278
I0
aI1
aI4
asI279
(lp279
I0
aI0
aI5
asI280
(lp280
I0
aI1
aI4
asI281
(lp281
I0
aI0
aI5
asI282
(lp282
I0
aI2
aI3
asI283
(lp283
I1
aI2
aI2
asI284
(lp284
I1
aI1
aI3
asI285
(lp285
I0
aI1
aI4
asI286
(lp286
I0
aI2
aI3
asI287
(lp287
I0
aI0
aI5
asI288
(lp288
I1
aI0
aI4
asI289
(lp289
I0
aI2
aI3
asI290
(lp290
I0
aI1
aI4
asI291
(lp291
I0
aI3
aI2
asI292
(lp292
I4
aI1
aI0
asI293
(lp293
I2
aI1
aI2
asI294
(lp294
I0
aI3
aI2
asI295
(lp295
I2
aI2
aI1
asI296
(lp296
I0
aI4
aI1
asI297
(lp297
I3
aI1
aI1
asI298
(lp298
I0
aI5
aI0
asI299
(lp299
I2
aI2
aI1
asI300
(lp300
I0
aI0
aI5
asI301
(lp301
I1
aI1
aI5
asI302
(lp302
I2
aI4
aI1
asI303
(lp303
I0
aI6
aI1
asI304
(lp304
I0
aI3
aI3
asI305
(lp305
I2
aI4
aI1
asI306
(lp306
I7
aI0
aI2
asI307
(lp307
I4
aI2
aI3
asI308
(lp308
I0
aI6
aI3
asI309
(lp309
I2
aI4
aI3
asI310
(lp310
I4
aI2
aI3
asI311
(lp311
I6
aI1
aI2
asI312
(lp312
I1
aI2
aI6
asI313
(lp313
I7
aI1
aI1
asI314
(lp314
I7
aI0
aI2
asI315
(lp315
I0
aI2
aI7
asI316
(lp316
I0
aI3
aI6
asI317
(lp317
I0
aI3
aI6
asI318
(lp318
I0
aI2
aI7
asI319
(lp319
I2
aI1
aI6
asI320
(lp320
I1
aI2
aI6
asI321
(lp321
I0
aI0
aI6
asI322
(lp322
I0
aI0
aI6
asI323
(lp323
I0
aI2
aI4
asI324
(lp324
I1
aI2
aI3
asI325
(lp325
I6
aI0
aI0
asI326
(lp326
I1
aI3
aI5
asI327
(lp327
I7
aI1
aI1
asI328
(lp328
I1
aI3
aI5
asI329
(lp329
I8
aI1
aI0
asI330
(lp330
I6
aI0
aI3
asI331
(lp331
I1
aI6
aI1
asI332
(lp332
I2
aI3
aI3
asI333
(lp333
I1
aI2
aI5
asI334
(lp334
I1
aI0
aI7
asI335
(lp335
I1
aI1
aI6
asI336
(lp336
I1
aI1
aI7
asI337
(lp337
I2
aI2
aI5
asI338
(lp338
I3
aI1
aI5
asI339
(lp339
I3
aI0
aI6
asI340
(lp340
I1
aI0
aI8
asI341
(lp341
I0
aI0
aI9
asI342
(lp342
I0
aI0
aI9
asI343
(lp343
I0
aI3
aI6
asI344
(lp344
I1
aI0
aI8
asI345
(lp345
I1
aI1
aI7
asI346
(lp346
I0
aI1
aI8
asI347
(lp347
I1
aI1
aI7
asI348
(lp348
I0
aI2
aI7
asI349
(lp349
I1
aI2
aI6
asI350
(lp350
I1
aI1
aI7
asI351
(lp351
I0
aI1
aI8
asI352
(lp352
I0
aI1
aI8
asI353
(lp353
I1
aI3
aI5
asI354
(lp354
I0
aI1
aI8
asI355
(lp355
I0
aI1
aI8
asI356
(lp356
I2
aI0
aI7
asI357
(lp357
I1
aI0
aI8
asI358
(lp358
I1
aI0
aI8
asI359
(lp359
I1
aI0
aI8
asI360
(lp360
I0
aI1
aI8
asI361
(lp361
I2
aI0
aI7
asI362
(lp362
I2
aI1
aI6
asI363
(lp363
I1
aI0
aI8
asI364
(lp364
I1
aI1
aI7
asI365
(lp365
I1
aI1
aI7
asI366
(lp366
I0
aI0
aI9
asI367
(lp367
I0
aI0
aI9
asI368
(lp368
I0
aI0
aI9
asI369
(lp369
I0
aI0
aI9
asI370
(lp370
I0
aI0
aI9
asI371
(lp371
I0
aI1
aI8
asI372
(lp372
I0
aI5
aI4
asI373
(lp373
I0
aI4
aI5
asI374
(lp374
I1
aI6
aI2
asI375
(lp375
I1
aI4
aI4
asI376
(lp376
I4
aI4
aI1
asI377
(lp377
I7
aI0
aI2
asI378
(lp378
I0
aI2
aI7
asI379
(lp379
I4
aI1
aI4
asI380
(lp380
I7
aI0
aI2
asI381
(lp381
I7
aI0
aI1
asI382
(lp382
I2
aI3
aI3
asI383
(lp383
I5
aI1
aI2
asI384
(lp384
I3
aI2
aI3
asI385
(lp385
I1
aI1
aI6
asI386
(lp386
I1
aI2
aI6
asI387
(lp387
I1
aI2
aI6
asI388
(lp388
I0
aI0
aI9
asI389
(lp389
I0
aI1
aI8
asI390
(lp390
I2
aI5
aI2
asI391
(lp391
I3
aI3
aI0
asI392
(lp392
I0
aI0
aI6
asI393
(lp393
I0
aI1
aI5
asI394
(lp394
I0
aI1
aI5
asI395
(lp395
I0
aI0
aI6
asI396
(lp396
I0
aI1
aI7
asI397
(lp397
I0
aI1
aI7
asI398
(lp398
I0
aI1
aI7
asI399
(lp399
I0
aI1
aI7
asI400
(lp400
I0
aI1
aI7
asI401
(lp401
I1
aI2
aI2
asI402
(lp402
I2
aI2
aI1
asI403
(lp403
I0
aI2
aI3
asI404
(lp404
I0
aI0
aI5
asI405
(lp405
I0
aI4
aI1
asI406
(lp406
I0
aI2
aI3
asI407
(lp407
I0
aI2
aI3
asI408
(lp408
I0
aI0
aI5
asI409
(lp409
I0
aI0
aI5
asI410
(lp410
I3
aI2
aI0
asI411
(lp411
I5
aI0
aI0
asI412
(lp412
I0
aI0
aI5
asI413
(lp413
I0
aI0
aI5
asI414
(lp414
I1
aI0
aI4
asI415
(lp415
I0
aI1
aI4
asI416
(lp416
I0
aI1
aI4
asI417
(lp417
I0
aI1
aI4
asI418
(lp418
I1
aI2
aI2
asI419
(lp419
I1
aI0
aI4
asI420
(lp420
I0
aI0
aI5
asI421
(lp421
I3
aI2
aI0
asI422
(lp422
I0
aI1
aI4
asI423
(lp423
I3
aI0
aI2
asI424
(lp424
I2
aI1
aI2
asI425
(lp425
I0
aI1
aI4
asI426
(lp426
I0
aI0
aI5
asI427
(lp427
I0
aI2
aI3
asI428
(lp428
I3
aI2
aI0
asI429
(lp429
I1
aI0
aI4
asI430
(lp430
I1
aI1
aI3
asI431
(lp431
I0
aI0
aI5
asI432
(lp432
I5
aI0
aI0
asI433
(lp433
I0
aI3
aI2
asI434
(lp434
I3
aI1
aI1
asI435
(lp435
I0
aI5
aI0
asI436
(lp436
I0
aI1
aI4
asI437
(lp437
I1
aI3
aI1
asI438
(lp438
I1
aI4
aI0
asI439
(lp439
I2
aI1
aI2
asI440
(lp440
I0
aI3
aI2
asI441
(lp441
I3
aI2
aI0
asI442
(lp442
I2
aI2
aI1
asI443
(lp443
I1
aI4
aI0
asI444
(lp444
I0
aI1
aI4
asI445
(lp445
I5
aI0
aI0
asI446
(lp446
I1
aI2
aI2
asI447
(lp447
I0
aI0
aI5
asI448
(lp448
I0
aI0
aI5
asI449
(lp449
I0
aI1
aI4
asI450
(lp450
I0
aI0
aI5
asI451
(lp451
I0
aI0
aI5
asI452
(lp452
I0
aI3
aI2
asI453
(lp453
I0
aI3
aI2
asI454
(lp454
I0
aI3
aI2
asI455
(lp455
I0
aI1
aI4
asI456
(lp456
I0
aI1
aI4
asI457
(lp457
I0
aI3
aI2
asI458
(lp458
I0
aI4
aI1
asI459
(lp459
I0
aI0
aI5
asI460
(lp460
I0
aI2
aI3
asI461
(lp461
I0
aI2
aI3
asI462
(lp462
I0
aI2
aI3
asI463
(lp463
I0
aI1
aI4
asI464
(lp464
I0
aI3
aI2
asI465
(lp465
I0
aI3
aI2
asI466
(lp466
I2
aI2
aI1
asI467
(lp467
I0
aI1
aI4
asI468
(lp468
I3
aI1
aI1
asI469
(lp469
I0
aI4
aI1
asI470
(lp470
I1
aI3
aI1
asI471
(lp471
I0
aI0
aI5
asI472
(lp472
I2
aI0
aI3
asI473
(lp473
I1
aI3
aI1
asI474
(lp474
I5
aI0
aI0
asI475
(lp475
I0
aI1
aI4
asI476
(lp476
I1
aI1
aI3
asI477
(lp477
I0
aI0
aI5
asI478
(lp478
I5
aI0
aI0
asI479
(lp479
I2
aI3
aI0
asI480
(lp480
I0
aI1
aI4
asI481
(lp481
I0
aI0
aI5
asI482
(lp482
I0
aI0
aI5
asI483
(lp483
I0
aI0
aI5
asI484
(lp484
I0
aI1
aI4
asI485
(lp485
I0
aI1
aI4
asI486
(lp486
I0
aI1
aI4
asI487
(lp487
I0
aI2
aI3
asI488
(lp488
I0
aI2
aI3
asI489
(lp489
I0
aI2
aI3
asI490
(lp490
I0
aI1
aI4
asI491
(lp491
I0
aI2
aI3
asI492
(lp492
I0
aI0
aI5
asI493
(lp493
I0
aI2
aI3
asI494
(lp494
I0
aI1
aI4
asI495
(lp495
I0
aI1
aI4
asI496
(lp496
I0
aI2
aI3
asI497
(lp497
I0
aI0
aI5
asI498
(lp498
I0
aI1
aI4
asI499
(lp499
I0
aI3
aI2
asI500
(lp500
I0
aI1
aI4
asI501
(lp501
I1
aI2
aI2
asI502
(lp502
I0
aI1
aI4
asI503
(lp503
I0
aI4
aI1
asI504
(lp504
I0
aI2
aI3
asI505
(lp505
I5
aI0
aI0
asI506
(lp506
I5
aI0
aI0
asI507
(lp507
I4
aI1
aI0
asI508
(lp508
I1
aI3
aI1
asI509
(lp509
I5
aI0
aI0
asI510
(lp510
I0
aI5
aI0
asI511
(lp511
I5
aI0
aI0
asI512
(lp512
I5
aI0
aI0
asI513
(lp513
I0
aI1
aI4
asI514
(lp514
I1
aI2
aI2
asI515
(lp515
I5
aI0
aI0
asI516
(lp516
I1
aI1
aI3
asI517
(lp517
I0
aI1
aI4
asI518
(lp518
I5
aI0
aI0
asI519
(lp519
I1
aI2
aI2
asI520
(lp520
I1
aI1
aI3
asI521
(lp521
I1
aI1
aI3
asI522
(lp522
I4
aI0
aI1
asI523
(lp523
I1
aI1
aI3
asI524
(lp524
I1
aI1
aI3
asI525
(lp525
I0
aI2
aI3
asI526
(lp526
I1
aI0
aI4
asI527
(lp527
I5
aI0
aI0
asI528
(lp528
I1
aI0
aI4
asI529
(lp529
I0
aI5
aI0
asI530
(lp530
I4
aI0
aI1
asI531
(lp531
I3
aI1
aI1
asI532
(lp532
I1
aI4
aI0
asI533
(lp533
I2
aI3
aI0
asI534
(lp534
I0
aI3
aI2
asI535
(lp535
I0
aI3
aI2
asI536
(lp536
I5
aI0
aI0
asI537
(lp537
I5
aI0
aI0
asI538
(lp538
I2
aI3
aI0
asI539
(lp539
I3
aI1
aI1
asI540
(lp540
I3
aI2
aI0
asI541
(lp541
I1
aI3
aI1
asI542
(lp542
I3
aI1
aI1
asI543
(lp543
I1
aI4
aI0
asI544
(lp544
I1
aI3
aI1
asI545
(lp545
I0
aI3
aI2
asI546
(lp546
I0
aI3
aI2
asI547
(lp547
I0
aI4
aI1
asI548
(lp548
I0
aI2
aI3
asI549
(lp549
I0
aI3
aI2
asI550
(lp550
I1
aI2
aI2
asI551
(lp551
I0
aI4
aI1
asI552
(lp552
I0
aI2
aI3
asI553
(lp553
I0
aI2
aI3
asI554
(lp554
I1
aI2
aI2
asI555
(lp555
I0
aI4
aI1
asI556
(lp556
I0
aI2
aI3
asI557
(lp557
I1
aI2
aI2
asI558
(lp558
I1
aI4
aI0
asI559
(lp559
I1
aI4
aI0
asI560
(lp560
I5
aI0
aI0
asI561
(lp561
I0
aI1
aI4
asI562
(lp562
I1
aI4
aI0
asI563
(lp563
I1
aI3
aI1
asI564
(lp564
I2
aI3
aI0
asI565
(lp565
I3
aI1
aI1
asI566
(lp566
I5
aI0
aI0
asI567
(lp567
I1
aI1
aI3
asI568
(lp568
I1
aI4
aI0
asI569
(lp569
I5
aI0
aI0
asI570
(lp570
I1
aI3
aI1
asI571
(lp571
I0
aI1
aI4
asI572
(lp572
I0
aI1
aI4
asI573
(lp573
I2
aI3
aI0
asI574
(lp574
I0
aI2
aI3
asI575
(lp575
I5
aI0
aI0
asI576
(lp576
I1
aI1
aI3
asI577
(lp577
I1
aI1
aI3
asI578
(lp578
I1
aI1
aI3
asI579
(lp579
I5
aI0
aI0
asI580
(lp580
I1
aI2
aI2
asI581
(lp581
I0
aI3
aI2
asI582
(lp582
I3
aI2
aI0
asI583
(lp583
I1
aI2
aI2
asI584
(lp584
I2
aI3
aI0
asI585
(lp585
I0
aI4
aI1
asI586
(lp586
I0
aI5
aI0
asI587
(lp587
I0
aI3
aI2
asI588
(lp588
I5
aI0
aI0
asI589
(lp589
I5
aI0
aI0
asI590
(lp590
I5
aI0
aI0
asI591
(lp591
I0
aI3
aI2
asI592
(lp592
I0
aI1
aI4
asI593
(lp593
I0
aI1
aI4
asI594
(lp594
I5
aI0
aI0
asI595
(lp595
I1
aI2
aI2
asI596
(lp596
I0
aI4
aI1
asI597
(lp597
I0
aI3
aI2
asI598
(lp598
I5
aI0
aI0
asI599
(lp599
I0
aI1
aI4
asI600
(lp600
I2
aI0
aI3
asI601
(lp601
I2
aI0
aI3
asI602
(lp602
I0
aI1
aI4
asI603
(lp603
I1
aI1
aI3
asI604
(lp604
I0
aI2
aI3
asI605
(lp605
I1
aI1
aI3
asI606
(lp606
I1
aI1
aI3
asI607
(lp607
I1
aI1
aI3
asI608
(lp608
I1
aI1
aI3
asI609
(lp609
I3
aI1
aI1
asI610
(lp610
I1
aI0
aI4
asI611
(lp611
I0
aI1
aI4
asI612
(lp612
I4
aI1
aI0
asI613
(lp613
I4
aI1
aI0
asI614
(lp614
I0
aI4
aI1
asI615
(lp615
I4
aI1
aI0
asI616
(lp616
I4
aI1
aI0
asI617
(lp617
I2
aI2
aI1
asI618
(lp618
I1
aI3
aI1
asI619
(lp619
I4
aI1
aI0
asI620
(lp620
I1
aI0
aI4
asI621
(lp621
I1
aI1
aI3
asI622
(lp622
I4
aI1
aI0
asI623
(lp623
I3
aI2
aI0
asI624
(lp624
I0
aI5
aI0
asI625
(lp625
I0
aI2
aI3
asI626
(lp626
I4
aI1
aI0
asI627
(lp627
I0
aI2
aI3
asI628
(lp628
I1
aI3
aI1
asI629
(lp629
I1
aI4
aI0
asI630
(lp630
I1
aI1
aI3
asI631
(lp631
I1
aI2
aI2
asI632
(lp632
I2
aI2
aI1
asI633
(lp633
I1
aI1
aI3
asI634
(lp634
I1
aI2
aI2
asI635
(lp635
I1
aI2
aI2
asI636
(lp636
I1
aI2
aI2
asI637
(lp637
I0
aI3
aI2
asI638
(lp638
I0
aI2
aI3
asI639
(lp639
I0
aI1
aI4
asI640
(lp640
I0
aI2
aI3
asI641
(lp641
I1
aI2
aI2
asI642
(lp642
I0
aI1
aI4
asI643
(lp643
I0
aI0
aI5
asI644
(lp644
I0
aI1
aI4
asI645
(lp645
I0
aI2
aI3
asI646
(lp646
I1
aI2
aI2
asI647
(lp647
I0
aI2
aI3
asI648
(lp648
I0
aI2
aI3
asI649
(lp649
I0
aI0
aI5
asI650
(lp650
I1
aI1
aI3
asI651
(lp651
I0
aI4
aI1
asI652
(lp652
I0
aI2
aI3
asI653
(lp653
I1
aI4
aI0
asI654
(lp654
I1
aI4
aI0
asI655
(lp655
I1
aI3
aI1
asI656
(lp656
I1
aI1
aI3
asI657
(lp657
I1
aI2
aI2
asI658
(lp658
I1
aI2
aI2
asI659
(lp659
I3
aI0
aI2
asI660
(lp660
I1
aI2
aI2
asI661
(lp661
I2
aI1
aI2
asI662
(lp662
I2
aI1
aI2
asI663
(lp663
I1
aI3
aI1
asI664
(lp664
I3
aI1
aI1
asI665
(lp665
I1
aI1
aI3
asI666
(lp666
I1
aI0
aI4
asI667
(lp667
I1
aI1
aI3
asI668
(lp668
I0
aI1
aI4
asI669
(lp669
I0
aI5
aI0
asI670
(lp670
I1
aI1
aI3
asI671
(lp671
I1
aI1
aI3
asI672
(lp672
I2
aI0
aI3
asI673
(lp673
I2
aI3
aI0
asI674
(lp674
I1
aI1
aI3
asI675
(lp675
I1
aI1
aI3
asI676
(lp676
I1
aI2
aI2
asI677
(lp677
I2
aI2
aI1
asI678
(lp678
I1
aI0
aI4
asI679
(lp679
I1
aI1
aI3
asI680
(lp680
I1
aI1
aI3
asI681
(lp681
I1
aI2
aI2
asI682
(lp682
I0
aI2
aI3
asI683
(lp683
I0
aI2
aI3
asI684
(lp684
I0
aI2
aI3
asI685
(lp685
I0
aI4
aI1
asI686
(lp686
I0
aI1
aI4
asI687
(lp687
I0
aI4
aI1
asI688
(lp688
I4
aI0
aI1
asI689
(lp689
I0
aI0
aI5
asI690
(lp690
I0
aI2
aI3
asI691
(lp691
I4
aI0
aI1
asI692
(lp692
I2
aI3
aI0
asI693
(lp693
I2
aI3
aI0
asI694
(lp694
I5
aI0
aI0
asI695
(lp695
I1
aI1
aI3
asI696
(lp696
I0
aI1
aI4
asI697
(lp697
I1
aI3
aI1
asI698
(lp698
I0
aI1
aI4
asI699
(lp699
I4
aI0
aI1
asI700
(lp700
I1
aI1
aI3
asI701
(lp701
I0
aI1
aI4
asI702
(lp702
I5
aI0
aI0
asI703
(lp703
I3
aI2
aI0
asI704
(lp704
I0
aI1
aI4
asI705
(lp705
I0
aI0
aI5
asI706
(lp706
I0
aI4
aI1
asI707
(lp707
I0
aI2
aI3
asI708
(lp708
I0
aI0
aI5
asI709
(lp709
I0
aI0
aI5
asI710
(lp710
I0
aI0
aI5
asI711
(lp711
I0
aI1
aI4
asI712
(lp712
I2
aI1
aI2
asI713
(lp713
I0
aI2
aI3
asI714
(lp714
I0
aI0
aI5
asI715
(lp715
I0
aI1
aI4
asI716
(lp716
I0
aI2
aI3
asI717
(lp717
I2
aI1
aI2
asI718
(lp718
I0
aI5
aI0
asI719
(lp719
I0
aI3
aI2
asI720
(lp720
I1
aI1
aI3
asI721
(lp721
I0
aI0
aI5
asI722
(lp722
I1
aI1
aI3
asI723
(lp723
I0
aI1
aI4
asI724
(lp724
I0
aI0
aI5
asI725
(lp725
I0
aI0
aI5
asI726
(lp726
I0
aI1
aI4
asI727
(lp727
I0
aI0
aI5
asI728
(lp728
I0
aI2
aI3
asI729
(lp729
I0
aI1
aI4
asI730
(lp730
I0
aI2
aI3
asI731
(lp731
I0
aI1
aI4
asI732
(lp732
I1
aI0
aI4
asI733
(lp733
I0
aI1
aI4
asI734
(lp734
I0
aI1
aI4
asI735
(lp735
I0
aI0
aI5
asI736
(lp736
I0
aI0
aI5
asI737
(lp737
I0
aI5
aI0
asI738
(lp738
I0
aI1
aI4
asI739
(lp739
I0
aI0
aI5
asI740
(lp740
I0
aI5
aI0
asI741
(lp741
I0
aI0
aI5
asI742
(lp742
I4
aI1
aI0
asI743
(lp743
I4
aI0
aI1
asI744
(lp744
I3
aI1
aI1
asI745
(lp745
I3
aI0
aI2
asI746
(lp746
I0
aI1
aI4
asI747
(lp747
I0
aI4
aI1
asI748
(lp748
I0
aI0
aI5
asI749
(lp749
I0
aI4
aI1
asI750
(lp750
I0
aI0
aI5
asI751
(lp751
I1
aI0
aI4
asI752
(lp752
I1
aI0
aI4
asI753
(lp753
I0
aI1
aI4
asI754
(lp754
I1
aI0
aI4
asI755
(lp755
I0
aI1
aI4
asI756
(lp756
I1
aI0
aI4
asI757
(lp757
I0
aI1
aI4
asI758
(lp758
I1
aI1
aI3
asI759
(lp759
I1
aI0
aI4
asI760
(lp760
I1
aI0
aI4
asI761
(lp761
I0
aI0
aI5
asI762
(lp762
I1
aI0
aI4
asI763
(lp763
I0
aI0
aI5
asI764
(lp764
I0
aI3
aI2
asI765
(lp765
I0
aI0
aI5
asI766
(lp766
I1
aI0
aI4
asI767
(lp767
I0
aI0
aI5
asI768
(lp768
I1
aI0
aI4
asI769
(lp769
I0
aI1
aI4
asI770
(lp770
I0
aI0
aI5
asI771
(lp771
I1
aI1
aI3
asI772
(lp772
I2
aI1
aI2
asI773
(lp773
I0
aI0
aI5
asI774
(lp774
I0
aI2
aI3
asI775
(lp775
I1
aI2
aI2
asI776
(lp776
I3
aI0
aI2
asI777
(lp777
I0
aI4
aI1
asI778
(lp778
I0
aI4
aI1
asI779
(lp779
I1
aI0
aI4
asI780
(lp780
I1
aI3
aI1
asI781
(lp781
I1
aI4
aI0
asI782
(lp782
I0
aI4
aI1
asI783
(lp783
I0
aI2
aI3
asI784
(lp784
I1
aI2
aI2
asI785
(lp785
I1
aI2
aI2
asI786
(lp786
I2
aI3
aI0
asI787
(lp787
I1
aI3
aI1
asI788
(lp788
I0
aI2
aI3
asI789
(lp789
I1
aI4
aI0
asI790
(lp790
I0
aI0
aI5
asI791
(lp791
I1
aI0
aI4
asI792
(lp792
I5
aI0
aI0
asI793
(lp793
I0
aI1
aI4
asI794
(lp794
I1
aI4
aI0
asI795
(lp795
I0
aI1
aI4
asI796
(lp796
I1
aI0
aI4
asI797
(lp797
I1
aI0
aI4
asI798
(lp798
I1
aI0
aI4
asI799
(lp799
I1
aI0
aI4
asI800
(lp800
I0
aI0
aI5
asI801
(lp801
I0
aI3
aI2
asI802
(lp802
I1
aI0
aI4
asI803
(lp803
I0
aI1
aI4
asI804
(lp804
I0
aI1
aI4
asI805
(lp805
I0
aI3
aI2
asI806
(lp806
I0
aI0
aI5
asI807
(lp807
I0
aI0
aI5
asI808
(lp808
I1
aI0
aI4
asI809
(lp809
I0
aI0
aI5
asI810
(lp810
I0
aI0
aI5
asI811
(lp811
I0
aI0
aI5
asI812
(lp812
I0
aI0
aI5
asI813
(lp813
I1
aI0
aI4
asI814
(lp814
I0
aI2
aI3
asI815
(lp815
I0
aI3
aI2
asI816
(lp816
I0
aI2
aI3
asI817
(lp817
I0
aI1
aI4
asI818
(lp818
I0
aI1
aI4
asI819
(lp819
I0
aI0
aI5
asI820
(lp820
I0
aI0
aI5
asI821
(lp821
I1
aI0
aI4
asI822
(lp822
I0
aI2
aI3
asI823
(lp823
I0
aI2
aI3
asI824
(lp824
I0
aI1
aI4
asI825
(lp825
I1
aI0
aI4
asI826
(lp826
I0
aI1
aI4
asI827
(lp827
I0
aI1
aI4
asI828
(lp828
I0
aI5
aI0
asI829
(lp829
I0
aI0
aI5
asI830
(lp830
I0
aI1
aI4
asI831
(lp831
I0
aI0
aI5
asI832
(lp832
I1
aI1
aI3
asI833
(lp833
I0
aI0
aI5
asI834
(lp834
I1
aI1
aI3
asI835
(lp835
I0
aI0
aI5
asI836
(lp836
I1
aI1
aI3
asI837
(lp837
I0
aI2
aI3
asI838
(lp838
I1
aI0
aI4
asI839
(lp839
I0
aI1
aI4
asI840
(lp840
I1
aI1
aI3
asI841
(lp841
I0
aI2
aI3
asI842
(lp842
I0
aI1
aI4
asI843
(lp843
I0
aI1
aI4
asI844
(lp844
I0
aI0
aI5
asI845
(lp845
I0
aI4
aI1
asI846
(lp846
I0
aI2
aI3
asI847
(lp847
I0
aI1
aI4
asI848
(lp848
I0
aI1
aI4
asI849
(lp849
I0
aI0
aI5
asI850
(lp850
I0
aI1
aI4
asI851
(lp851
I0
aI1
aI4
asI852
(lp852
I0
aI1
aI4
asI853
(lp853
I1
aI1
aI3
asI854
(lp854
I0
aI2
aI3
asI855
(lp855
I0
aI3
aI2
asI856
(lp856
I0
aI0
aI5
asI857
(lp857
I0
aI2
aI3
asI858
(lp858
I1
aI0
aI4
asI859
(lp859
I1
aI4
aI0
asI860
(lp860
I1
aI0
aI4
asI861
(lp861
I2
aI0
aI3
asI862
(lp862
I0
aI0
aI5
asI863
(lp863
I1
aI2
aI2
asI864
(lp864
I0
aI0
aI5
asI865
(lp865
I1
aI0
aI4
asI866
(lp866
I0
aI3
aI2
asI867
(lp867
I0
aI0
aI5
asI868
(lp868
I1
aI1
aI3
asI869
(lp869
I0
aI1
aI4
asI870
(lp870
I0
aI1
aI4
asI871
(lp871
I0
aI2
aI3
asI872
(lp872
I0
aI4
aI1
asI873
(lp873
I1
aI0
aI4
asI874
(lp874
I0
aI2
aI3
asI875
(lp875
I0
aI2
aI3
asI876
(lp876
I0
aI1
aI4
asI877
(lp877
I2
aI0
aI3
asI878
(lp878
I0
aI5
aI0
asI879
(lp879
I0
aI1
aI4
asI880
(lp880
I0
aI3
aI2
asI881
(lp881
I0
aI1
aI4
asI882
(lp882
I0
aI2
aI3
asI883
(lp883
I0
aI2
aI3
asI884
(lp884
I0
aI2
aI3
asI885
(lp885
I0
aI2
aI3
asI886
(lp886
I0
aI2
aI3
asI887
(lp887
I2
aI0
aI3
asI888
(lp888
I0
aI2
aI3
asI889
(lp889
I4
aI0
aI1
asI890
(lp890
I0
aI2
aI3
asI891
(lp891
I1
aI0
aI4
asI892
(lp892
I0
aI1
aI4
asI893
(lp893
I0
aI1
aI4
asI894
(lp894
I1
aI3
aI1
asI895
(lp895
I4
aI1
aI0
asI896
(lp896
I4
aI0
aI1
asI897
(lp897
I0
aI1
aI4
asI898
(lp898
I0
aI2
aI3
asI899
(lp899
I2
aI2
aI1
asI900
(lp900
I3
aI1
aI1
asI901
(lp901
I4
aI0
aI1
asI902
(lp902
I0
aI4
aI1
asI903
(lp903
I0
aI4
aI1
asI904
(lp904
I4
aI0
aI1
asI905
(lp905
I0
aI0
aI5
asI906
(lp906
I0
aI1
aI4
asI907
(lp907
I0
aI0
aI5
asI908
(lp908
I4
aI0
aI1
asI909
(lp909
I1
aI3
aI1
asI910
(lp910
I0
aI0
aI5
asI911
(lp911
I0
aI1
aI4
asI912
(lp912
I2
aI0
aI3
asI913
(lp913
I0
aI3
aI2
asI914
(lp914
I1
aI0
aI4
asI915
(lp915
I1
aI0
aI4
asI916
(lp916
I0
aI1
aI4
asI917
(lp917
I1
aI1
aI3
asI918
(lp918
I0
aI1
aI4
asI919
(lp919
I0
aI1
aI4
asI920
(lp920
I0
aI0
aI5
asI921
(lp921
I0
aI1
aI4
asI922
(lp922
I0
aI2
aI3
asI923
(lp923
I0
aI2
aI3
asI924
(lp924
I0
aI1
aI4
asI925
(lp925
I0
aI0
aI5
asI926
(lp926
I0
aI2
aI3
asI927
(lp927
I0
aI2
aI3
asI928
(lp928
I4
aI0
aI1
asI929
(lp929
I0
aI4
aI1
asI930
(lp930
I0
aI0
aI5
asI931
(lp931
I0
aI0
aI5
asI932
(lp932
I2
aI1
aI2
asI933
(lp933
I2
aI2
aI1
asI934
(lp934
I2
aI2
aI1
asI935
(lp935
I0
aI0
aI5
asI936
(lp936
I0
aI1
aI4
asI937
(lp937
I0
aI2
aI3
asI938
(lp938
I0
aI2
aI3
asI939
(lp939
I0
aI2
aI3
asI940
(lp940
I5
aI0
aI0
asI941
(lp941
I1
aI4
aI0
asI942
(lp942
I1
aI1
aI3
asI943
(lp943
I0
aI1
aI4
asI944
(lp944
I1
aI2
aI2
asI945
(lp945
I0
aI1
aI4
asI946
(lp946
I0
aI0
aI5
asI947
(lp947
I0
aI0
aI5
asI948
(lp948
I0
aI1
aI4
asI949
(lp949
I0
aI1
aI4
asI950
(lp950
I0
aI2
aI3
asI951
(lp951
I0
aI1
aI4
asI952
(lp952
I0
aI0
aI5
asI953
(lp953
I0
aI2
aI3
asI954
(lp954
I0
aI1
aI4
asI955
(lp955
I0
aI0
aI5
asI956
(lp956
I0
aI0
aI5
asI957
(lp957
I0
aI0
aI5
asI958
(lp958
I0
aI0
aI5
asI959
(lp959
I0
aI4
aI1
asI960
(lp960
I0
aI0
aI5
asI961
(lp961
I0
aI0
aI5
asI962
(lp962
I0
aI1
aI4
asI963
(lp963
I0
aI0
aI5
asI964
(lp964
I0
aI2
aI3
asI965
(lp965
I1
aI3
aI1
asI966
(lp966
I0
aI3
aI2
asI967
(lp967
I0
aI2
aI3
asI968
(lp968
I0
aI0
aI5
asI969
(lp969
I0
aI1
aI4
asI970
(lp970
I0
aI2
aI3
asI971
(lp971
I0
aI1
aI4
asI972
(lp972
I3
aI1
aI1
asI973
(lp973
I0
aI2
aI3
asI974
(lp974
I0
aI1
aI4
asI975
(lp975
I0
aI2
aI3
asI976
(lp976
I0
aI0
aI5
asI977
(lp977
I0
aI0
aI5
asI978
(lp978
I0
aI1
aI4
asI979
(lp979
I0
aI1
aI4
asI980
(lp980
I0
aI1
aI4
asI981
(lp981
I1
aI2
aI2
asI982
(lp982
I0
aI1
aI4
asI983
(lp983
I0
aI2
aI3
asI984
(lp984
I0
aI3
aI2
asI985
(lp985
I0
aI2
aI3
asI986
(lp986
I0
aI0
aI5
asI987
(lp987
I0
aI1
aI4
asI988
(lp988
I1
aI0
aI4
asI989
(lp989
I0
aI0
aI5
asI990
(lp990
I1
aI0
aI4
asI991
(lp991
I0
aI0
aI5
asI992
(lp992
I2
aI0
aI3
asI993
(lp993
I0
aI0
aI5
asI994
(lp994
I0
aI0
aI5
asI995
(lp995
I0
aI0
aI5
asI996
(lp996
I0
aI0
aI5
asI997
(lp997
I0
aI0
aI5
asI998
(lp998
I0
aI1
aI4
asI999
(lp999
I0
aI0
aI5
asI1000
(lp1000
I0
aI0
aI5
asI1001
(lp1001
I1
aI0
aI4
asI1002
(lp1002
I0
aI1
aI4
asI1003
(lp1003
I0
aI2
aI3
asI1004
(lp1004
I1
aI2
aI2
asI1005
(lp1005
I1
aI1
aI3
asI1006
(lp1006
I0
aI3
aI2
asI1007
(lp1007
I0
aI3
aI2
asI1008
(lp1008
I0
aI3
aI2
asI1009
(lp1009
I0
aI3
aI2
asI1010
(lp1010
I0
aI2
aI3
asI1011
(lp1011
I0
aI2
aI3
asI1012
(lp1012
I1
aI1
aI3
asI1013
(lp1013
I0
aI3
aI2
asI1014
(lp1014
I0
aI2
aI3
asI1015
(lp1015
I1
aI3
aI1
asI1016
(lp1016
I0
aI1
aI4
asI1017
(lp1017
I0
aI2
aI3
asI1018
(lp1018
I1
aI0
aI4
asI1019
(lp1019
I0
aI4
aI1
asI1020
(lp1020
I0
aI3
aI2
asI1021
(lp1021
I0
aI2
aI3
asI1022
(lp1022
I0
aI3
aI2
asI1023
(lp1023
I0
aI1
aI4
asI1024
(lp1024
I0
aI4
aI1
asI1025
(lp1025
I2
aI3
aI0
asI1026
(lp1026
I0
aI1
aI4
asI1027
(lp1027
I2
aI3
aI0
asI1028
(lp1028
I1
aI1
aI3
asI1029
(lp1029
I0
aI0
aI5
asI1030
(lp1030
I0
aI3
aI2
asI1031
(lp1031
I0
aI2
aI3
asI1032
(lp1032
I1
aI3
aI1
asI1033
(lp1033
I0
aI1
aI4
asI1034
(lp1034
I0
aI1
aI4
asI1035
(lp1035
I0
aI1
aI4
asI1036
(lp1036
I0
aI2
aI3
asI1037
(lp1037
I0
aI3
aI2
asI1038
(lp1038
I1
aI2
aI2
asI1039
(lp1039
I1
aI4
aI0
asI1040
(lp1040
I0
aI3
aI2
asI1041
(lp1041
I2
aI1
aI2
asI1042
(lp1042
I2
aI1
aI2
asI1043
(lp1043
I0
aI2
aI3
asI1044
(lp1044
I1
aI2
aI2
asI1045
(lp1045
I1
aI2
aI2
asI1046
(lp1046
I1
aI2
aI2
asI1047
(lp1047
I1
aI2
aI2
asI1048
(lp1048
I0
aI5
aI0
asI1049
(lp1049
I0
aI1
aI4
asI1050
(lp1050
I0
aI4
aI1
asI1051
(lp1051
I0
aI2
aI3
asI1052
(lp1052
I1
aI1
aI3
asI1053
(lp1053
I0
aI2
aI3
asI1054
(lp1054
I0
aI2
aI3
asI1055
(lp1055
I1
aI0
aI4
asI1056
(lp1056
I0
aI0
aI5
asI1057
(lp1057
I0
aI1
aI4
asI1058
(lp1058
I1
aI2
aI2
asI1059
(lp1059
I2
aI3
aI0
asI1060
(lp1060
I0
aI3
aI2
asI1061
(lp1061
I1
aI2
aI2
asI1062
(lp1062
I0
aI4
aI1
asI1063
(lp1063
I0
aI1
aI4
asI1064
(lp1064
I0
aI3
aI2
asI1065
(lp1065
I0
aI1
aI4
asI1066
(lp1066
I0
aI2
aI3
asI1067
(lp1067
I0
aI3
aI2
asI1068
(lp1068
I0
aI2
aI3
asI1069
(lp1069
I0
aI2
aI3
asI1070
(lp1070
I0
aI2
aI3
asI1071
(lp1071
I0
aI2
aI3
asI1072
(lp1072
I0
aI1
aI4
asI1073
(lp1073
I1
aI0
aI4
asI1074
(lp1074
I0
aI2
aI3
asI1075
(lp1075
I0
aI2
aI3
asI1076
(lp1076
I1
aI2
aI2
asI1077
(lp1077
I1
aI3
aI1
asI1078
(lp1078
I0
aI3
aI2
asI1079
(lp1079
I0
aI2
aI3
asI1080
(lp1080
I0
aI2
aI3
asI1081
(lp1081
I0
aI3
aI2
asI1082
(lp1082
I0
aI3
aI2
asI1083
(lp1083
I3
aI2
aI0
asI1084
(lp1084
I0
aI1
aI4
asI1085
(lp1085
I0
aI2
aI3
asI1086
(lp1086
I1
aI3
aI1
asI1087
(lp1087
I0
aI4
aI1
asI1088
(lp1088
I0
aI2
aI3
asI1089
(lp1089
I0
aI4
aI1
asI1090
(lp1090
I0
aI3
aI2
asI1091
(lp1091
I0
aI3
aI2
asI1092
(lp1092
I1
aI3
aI1
asI1093
(lp1093
I0
aI4
aI1
asI1094
(lp1094
I0
aI2
aI3
asI1095
(lp1095
I0
aI3
aI2
asI1096
(lp1096
I0
aI0
aI5
asI1097
(lp1097
I0
aI3
aI2
asI1098
(lp1098
I1
aI3
aI1
asI1099
(lp1099
I1
aI2
aI2
asI1100
(lp1100
I0
aI3
aI2
asI1101
(lp1101
I0
aI5
aI0
asI1102
(lp1102
I0
aI1
aI4
asI1103
(lp1103
I0
aI4
aI1
asI1104
(lp1104
I0
aI3
aI2
asI1105
(lp1105
I0
aI1
aI4
asI1106
(lp1106
I0
aI1
aI4
asI1107
(lp1107
I1
aI1
aI3
asI1108
(lp1108
I0
aI1
aI4
asI1109
(lp1109
I0
aI1
aI4
asI1110
(lp1110
I0
aI0
aI5
asI1111
(lp1111
I0
aI3
aI2
asI1112
(lp1112
I0
aI2
aI3
asI1113
(lp1113
I0
aI3
aI2
asI1114
(lp1114
I0
aI0
aI5
asI1115
(lp1115
I1
aI2
aI2
asI1116
(lp1116
I0
aI1
aI4
asI1117
(lp1117
I0
aI2
aI3
asI1118
(lp1118
I0
aI1
aI4
asI1119
(lp1119
I1
aI2
aI2
asI1120
(lp1120
I0
aI2
aI3
asI1121
(lp1121
I0
aI1
aI4
asI1122
(lp1122
I1
aI1
aI3
asI1123
(lp1123
I0
aI0
aI5
asI1124
(lp1124
I0
aI3
aI2
asI1125
(lp1125
I0
aI2
aI3
asI1126
(lp1126
I0
aI1
aI4
asI1127
(lp1127
I0
aI0
aI5
asI1128
(lp1128
I0
aI1
aI4
asI1129
(lp1129
I0
aI0
aI5
asI1130
(lp1130
I5
aI0
aI0
asI1131
(lp1131
I5
aI0
aI0
asI1132
(lp1132
I5
aI0
aI0
asI1133
(lp1133
I4
aI1
aI0
asI1134
(lp1134
I4
aI1
aI0
asI1135
(lp1135
I3
aI2
aI0
asI1136
(lp1136
I0
aI2
aI3
asI1137
(lp1137
I0
aI4
aI1
asI1138
(lp1138
I0
aI5
aI0
asI1139
(lp1139
I3
aI2
aI0
asI1140
(lp1140
I0
aI3
aI2
asI1141
(lp1141
I5
aI0
aI0
asI1142
(lp1142
I0
aI3
aI2
asI1143
(lp1143
I0
aI1
aI4
asI1144
(lp1144
I0
aI3
aI2
asI1145
(lp1145
I0
aI2
aI3
asI1146
(lp1146
I0
aI1
aI4
asI1147
(lp1147
I0
aI2
aI3
asI1148
(lp1148
I1
aI0
aI4
asI1149
(lp1149
I1
aI3
aI1
asI1150
(lp1150
I0
aI1
aI4
asI1151
(lp1151
I0
aI0
aI5
asI1152
(lp1152
I0
aI2
aI3
asI1153
(lp1153
I0
aI1
aI4
asI1154
(lp1154
I1
aI2
aI2
asI1155
(lp1155
I0
aI2
aI3
asI1156
(lp1156
I0
aI3
aI2
asI1157
(lp1157
I5
aI0
aI0
asI1158
(lp1158
I1
aI4
aI0
asI1159
(lp1159
I4
aI1
aI0
asI1160
(lp1160
I0
aI5
aI0
asI1161
(lp1161
I1
aI4
aI0
asI1162
(lp1162
I0
aI4
aI1
asI1163
(lp1163
I0
aI2
aI3
asI1164
(lp1164
I0
aI1
aI4
asI1165
(lp1165
I1
aI3
aI1
asI1166
(lp1166
I0
aI3
aI2
asI1167
(lp1167
I1
aI3
aI1
asI1168
(lp1168
I0
aI1
aI4
asI1169
(lp1169
I3
aI2
aI0
asI1170
(lp1170
I1
aI3
aI1
asI1171
(lp1171
I2
aI2
aI1
asI1172
(lp1172
I4
aI1
aI0
asI1173
(lp1173
I0
aI0
aI5
asI1174
(lp1174
I0
aI2
aI3
asI1175
(lp1175
I0
aI0
aI5
asI1176
(lp1176
I0
aI0
aI5
asI1177
(lp1177
I0
aI1
aI4
asI1178
(lp1178
I0
aI2
aI3
asI1179
(lp1179
I1
aI4
aI0
asI1180
(lp1180
I0
aI3
aI2
asI1181
(lp1181
I0
aI3
aI2
asI1182
(lp1182
I0
aI1
aI4
asI1183
(lp1183
I0
aI0
aI5
asI1184
(lp1184
I0
aI2
aI3
asI1185
(lp1185
I5
aI0
aI0
asI1186
(lp1186
I0
aI0
aI5
asI1187
(lp1187
I5
aI0
aI0
asI1188
(lp1188
I4
aI1
aI0
asI1189
(lp1189
I0
aI0
aI5
asI1190
(lp1190
I4
aI1
aI0
asI1191
(lp1191
I0
aI4
aI1
asI1192
(lp1192
I0
aI2
aI3
asI1193
(lp1193
I0
aI0
aI5
asI1194
(lp1194
I0
aI2
aI3
asI1195
(lp1195
I2
aI2
aI1
asI1196
(lp1196
I2
aI2
aI1
asI1197
(lp1197
I2
aI3
aI0
asI1198
(lp1198
I3
aI2
aI0
asI1199
(lp1199
I5
aI0
aI0
asI1200
(lp1200
I0
aI2
aI3
asI1201
(lp1201
I0
aI2
aI3
asI1202
(lp1202
I1
aI4
aI0
asI1203
(lp1203
I0
aI2
aI3
asI1204
(lp1204
I0
aI3
aI2
asI1205
(lp1205
I0
aI0
aI5
asI1206
(lp1206
I0
aI2
aI3
asI1207
(lp1207
I0
aI1
aI4
asI1208
(lp1208
I0
aI1
aI4
asI1209
(lp1209
I0
aI4
aI1
asI1210
(lp1210
I0
aI4
aI1
asI1211
(lp1211
I0
aI3
aI1
asI1212
(lp1212
I0
aI1
aI3
asI1213
(lp1213
I0
aI2
aI2
asI1214
(lp1214
I0
aI1
aI3
asI1215
(lp1215
I0
aI2
aI2
asI1216
(lp1216
I0
aI2
aI3
asI1217
(lp1217
I0
aI3
aI2
asI1218
(lp1218
I0
aI3
aI2
asI1219
(lp1219
I0
aI4
aI1
asI1220
(lp1220
I0
aI2
aI3
asI1221
(lp1221
I0
aI4
aI1
asI1222
(lp1222
I2
aI3
aI0
asI1223
(lp1223
I1
aI3
aI1
asI1224
(lp1224
I0
aI0
aI5
asI1225
(lp1225
I0
aI2
aI3
asI1226
(lp1226
I3
aI1
aI0
asI1227
(lp1227
I3
aI1
aI0
asI1228
(lp1228
I2
aI2
aI0
asI1229
(lp1229
I3
aI1
aI0
asI1230
(lp1230
I2
aI1
aI1
asI1231
(lp1231
I3
aI1
aI1
asI1232
(lp1232
I0
aI5
aI0
asI1233
(lp1233
I4
aI1
aI0
asI1234
(lp1234
I4
aI0
aI1
asI1235
(lp1235
I0
aI1
aI4
asI1236
(lp1236
I4
aI1
aI0
asI1237
(lp1237
I4
aI1
aI0
asI1238
(lp1238
I4
aI1
aI0
asI1239
(lp1239
I4
aI1
aI0
asI1240
(lp1240
I4
aI1
aI0
asI1241
(lp1241
I4
aI1
aI0
asI1242
(lp1242
I4
aI1
aI0
asI1243
(lp1243
I3
aI2
aI0
asI1244
(lp1244
I3
aI2
aI0
asI1245
(lp1245
I4
aI1
aI0
asI1246
(lp1246
I0
aI5
aI0
asI1247
(lp1247
I3
aI2
aI0
asI1248
(lp1248
I1
aI1
aI3
asI1249
(lp1249
I5
aI0
aI0
asI1250
(lp1250
I1
aI1
aI3
asI1251
(lp1251
I3
aI1
aI0
asI1252
(lp1252
I2
aI2
aI0
asI1253
(lp1253
I0
aI4
aI0
asI1254
(lp1254
I1
aI3
aI0
asI1255
(lp1255
I0
aI1
aI3
asI1256
(lp1256
I0
aI0
aI5
asI1257
(lp1257
I0
aI0
aI5
asI1258
(lp1258
I0
aI0
aI5
asI1259
(lp1259
I0
aI0
aI5
asI1260
(lp1260
I0
aI0
aI5
asI1261
(lp1261
I0
aI3
aI2
asI1262
(lp1262
I0
aI1
aI4
asI1263
(lp1263
I0
aI2
aI3
asI1264
(lp1264
I0
aI2
aI3
asI1265
(lp1265
I0
aI2
aI3
asI1266
(lp1266
I0
aI2
aI3
asI1267
(lp1267
I0
aI4
aI1
asI1268
(lp1268
I1
aI2
aI2
asI1269
(lp1269
I1
aI2
aI2
asI1270
(lp1270
I0
aI2
aI3
asI1271
(lp1271
I0
aI1
aI4
asI1272
(lp1272
I0
aI3
aI2
asI1273
(lp1273
I1
aI2
aI2
asI1274
(lp1274
I0
aI1
aI4
asI1275
(lp1275
I0
aI2
aI3
asI1276
(lp1276
I0
aI1
aI3
asI1277
(lp1277
I0
aI1
aI3
asI1278
(lp1278
I0
aI1
aI3
asI1279
(lp1279
I0
aI1
aI3
asI1280
(lp1280
I0
aI1
aI3
asI1281
(lp1281
I0
aI1
aI4
asI1282
(lp1282
I0
aI0
aI5
asI1283
(lp1283
I0
aI0
aI5
asI1284
(lp1284
I0
aI3
aI2
asI1285
(lp1285
I0
aI2
aI3
asI1286
(lp1286
I0
aI1
aI4
asI1287
(lp1287
I0
aI1
aI4
asI1288
(lp1288
I0
aI1
aI4
asI1289
(lp1289
I0
aI1
aI4
asI1290
(lp1290
I0
aI1
aI4
asI1291
(lp1291
I0
aI2
aI3
asI1292
(lp1292
I0
aI0
aI5
asI1293
(lp1293
I0
aI1
aI4
asI1294
(lp1294
I0
aI1
aI4
asI1295
(lp1295
I0
aI1
aI4
asI1296
(lp1296
I1
aI1
aI3
asI1297
(lp1297
I0
aI2
aI3
asI1298
(lp1298
I0
aI3
aI2
asI1299
(lp1299
I0
aI5
aI0
asI1300
(lp1300
I0
aI3
aI2
asI1301
(lp1301
I0
aI1
aI4
asI1302
(lp1302
I0
aI1
aI4
asI1303
(lp1303
I0
aI4
aI1
asI1304
(lp1304
I1
aI0
aI4
asI1305
(lp1305
I0
aI2
aI3
asI1306
(lp1306
I0
aI1
aI4
asI1307
(lp1307
I0
aI1
aI4
asI1308
(lp1308
I0
aI1
aI4
asI1309
(lp1309
I0
aI1
aI4
asI1310
(lp1310
I0
aI0
aI5
asI1311
(lp1311
I0
aI0
aI5
asI1312
(lp1312
I0
aI2
aI3
asI1313
(lp1313
I0
aI3
aI2
asI1314
(lp1314
I0
aI2
aI3
asI1315
(lp1315
I0
aI2
aI3
asI1316
(lp1316
I0
aI2
aI3
asI1317
(lp1317
I0
aI1
aI4
asI1318
(lp1318
I0
aI1
aI4
asI1319
(lp1319
I0
aI2
aI3
asI1320
(lp1320
I0
aI1
aI4
asI1321
(lp1321
I0
aI1
aI3
asI1322
(lp1322
I4
aI0
aI0
asI1323
(lp1323
I0
aI2
aI2
asI1324
(lp1324
I0
aI1
aI3
asI1325
(lp1325
I0
aI3
aI1
asI1326
(lp1326
I1
aI2
aI2
asI1327
(lp1327
I0
aI5
aI0
asI1328
(lp1328
I0
aI3
aI2
asI1329
(lp1329
I5
aI0
aI0
asI1330
(lp1330
I0
aI5
aI0
asI1331
(lp1331
I0
aI3
aI2
asI1332
(lp1332
I0
aI2
aI3
asI1333
(lp1333
I3
aI2
aI0
asI1334
(lp1334
I0
aI4
aI1
asI1335
(lp1335
I5
aI0
aI0
asI1336
(lp1336
I5
aI0
aI0
asI1337
(lp1337
I0
aI5
aI0
asI1338
(lp1338
I4
aI1
aI0
asI1339
(lp1339
I0
aI3
aI2
asI1340
(lp1340
I5
aI0
aI0
asI1341
(lp1341
I5
aI0
aI0
asI1342
(lp1342
I0
aI5
aI0
asI1343
(lp1343
I0
aI5
aI0
asI1344
(lp1344
I0
aI5
aI0
asI1345
(lp1345
I0
aI5
aI0
asI1346
(lp1346
I5
aI0
aI0
asI1347
(lp1347
I0
aI5
aI0
asI1348
(lp1348
I1
aI1
aI3
asI1349
(lp1349
I0
aI1
aI4
asI1350
(lp1350
I4
aI1
aI0
asI1351
(lp1351
I0
aI0
aI5
asI1352
(lp1352
I5
aI0
aI0
asI1353
(lp1353
I0
aI2
aI3
asI1354
(lp1354
I0
aI0
aI5
asI1355
(lp1355
I0
aI0
aI5
asI1356
(lp1356
I0
aI1
aI4
asI1357
(lp1357
I0
aI2
aI3
asI1358
(lp1358
I0
aI1
aI4
asI1359
(lp1359
I4
aI1
aI0
asI1360
(lp1360
I0
aI3
aI2
asI1361
(lp1361
I0
aI1
aI4
asI1362
(lp1362
I3
aI2
aI0
asI1363
(lp1363
I0
aI5
aI0
asI1364
(lp1364
I0
aI1
aI4
asI1365
(lp1365
I0
aI5
aI0
asI1366
(lp1366
I0
aI1
aI4
asI1367
(lp1367
I0
aI3
aI2
asI1368
(lp1368
I0
aI5
aI0
asI1369
(lp1369
I0
aI4
aI1
asI1370
(lp1370
I0
aI1
aI4
asI1371
(lp1371
I0
aI0
aI4
asI1372
(lp1372
I3
aI1
aI0
asI1373
(lp1373
I0
aI1
aI3
asI1374
(lp1374
I0
aI3
aI1
asI1375
(lp1375
I0
aI4
aI0
asI1376
(lp1376
I0
aI0
aI5
asI1377
(lp1377
I2
aI3
aI0
asI1378
(lp1378
I0
aI4
aI1
asI1379
(lp1379
I0
aI0
aI5
asI1380
(lp1380
I0
aI1
aI4
asI1381
(lp1381
I0
aI4
aI1
asI1382
(lp1382
I0
aI5
aI0
asI1383
(lp1383
I2
aI3
aI0
asI1384
(lp1384
I0
aI3
aI2
asI1385
(lp1385
I0
aI2
aI3
asI1386
(lp1386
I1
aI3
aI0
asI1387
(lp1387
I4
aI0
aI0
asI1388
(lp1388
I3
aI1
aI0
asI1389
(lp1389
I0
aI0
aI4
asI1390
(lp1390
I0
aI2
aI2
asI1391
(lp1391
I3
aI1
aI0
asI1392
(lp1392
I3
aI1
aI0
asI1393
(lp1393
I0
aI0
aI4
asI1394
(lp1394
I0
aI0
aI4
asI1395
(lp1395
I0
aI1
aI3
asI1396
(lp1396
I0
aI1
aI4
asI1397
(lp1397
I0
aI1
aI4
asI1398
(lp1398
I0
aI1
aI4
asI1399
(lp1399
I0
aI1
aI4
asI1400
(lp1400
I0
aI1
aI4
asI1401
(lp1401
I0
aI2
aI3
asI1402
(lp1402
I0
aI0
aI5
asI1403
(lp1403
I0
aI1
aI4
asI1404
(lp1404
I0
aI0
aI5
asI1405
(lp1405
I0
aI1
aI4
asI1406
(lp1406
I0
aI0
aI5
asI1407
(lp1407
I0
aI1
aI4
asI1408
(lp1408
I0
aI0
aI5
asI1409
(lp1409
I0
aI2
aI3
asI1410
(lp1410
I0
aI2
aI3
asI1411
(lp1411
I0
aI0
aI5
asI1412
(lp1412
I1
aI0
aI4
asI1413
(lp1413
I0
aI2
aI3
asI1414
(lp1414
I0
aI1
aI4
asI1415
(lp1415
I0
aI1
aI4
asI1416
(lp1416
I0
aI1
aI4
asI1417
(lp1417
I0
aI1
aI4
asI1418
(lp1418
I0
aI2
aI3
asI1419
(lp1419
I0
aI1
aI4
asI1420
(lp1420
I1
aI1
aI3
asI1421
(lp1421
I0
aI2
aI3
asI1422
(lp1422
I0
aI1
aI4
asI1423
(lp1423
I0
aI4
aI1
asI1424
(lp1424
I0
aI4
aI1
asI1425
(lp1425
I0
aI1
aI4
asI1426
(lp1426
I1
aI1
aI3
asI1427
(lp1427
I0
aI2
aI3
asI1428
(lp1428
I0
aI2
aI3
asI1429
(lp1429
I0
aI1
aI4
asI1430
(lp1430
I0
aI2
aI3
asI1431
(lp1431
I0
aI0
aI5
asI1432
(lp1432
I0
aI1
aI4
asI1433
(lp1433
I0
aI2
aI3
asI1434
(lp1434
I0
aI1
aI4
asI1435
(lp1435
I0
aI1
aI4
asI1436
(lp1436
I0
aI1
aI4
asI1437
(lp1437
I0
aI1
aI4
asI1438
(lp1438
I0
aI1
aI4
asI1439
(lp1439
I0
aI1
aI4
asI1440
(lp1440
I0
aI3
aI2
asI1441
(lp1441
I0
aI2
aI3
asI1442
(lp1442
I0
aI2
aI3
asI1443
(lp1443
I0
aI3
aI2
asI1444
(lp1444
I0
aI2
aI3
asI1445
(lp1445
I0
aI2
aI3
asI1446
(lp1446
I0
aI2
aI3
asI1447
(lp1447
I1
aI1
aI3
asI1448
(lp1448
I0
aI2
aI3
asI1449
(lp1449
I0
aI2
aI3
asI1450
(lp1450
I0
aI3
aI2
asI1451
(lp1451
I0
aI5
aI0
asI1452
(lp1452
I0
aI3
aI2
asI1453
(lp1453
I0
aI3
aI2
asI1454
(lp1454
I3
aI2
aI0
asI1455
(lp1455
I1
aI4
aI0
asI1456
(lp1456
I1
aI3
aI1
asI1457
(lp1457
I2
aI2
aI1
asI1458
(lp1458
I0
aI3
aI2
asI1459
(lp1459
I2
aI2
aI1
asI1460
(lp1460
I0
aI5
aI0
asI1461
(lp1461
I0
aI1
aI4
asI1462
(lp1462
I2
aI2
aI1
asI1463
(lp1463
I0
aI1
aI4
asI1464
(lp1464
I2
aI2
aI1
asI1465
(lp1465
I0
aI0
aI5
asI1466
(lp1466
I0
aI1
aI4
asI1467
(lp1467
I0
aI0
aI5
asI1468
(lp1468
I0
aI0
aI5
asI1469
(lp1469
I0
aI0
aI5
asI1470
(lp1470
I0
aI1
aI4
asI1471
(lp1471
I0
aI2
aI3
asI1472
(lp1472
I0
aI2
aI3
asI1473
(lp1473
I0
aI2
aI3
asI1474
(lp1474
I1
aI1
aI3
asI1475
(lp1475
I0
aI1
aI4
asI1476
(lp1476
I3
aI2
aI0
asI1477
(lp1477
I0
aI1
aI4
asI1478
(lp1478
I0
aI5
aI0
asI1479
(lp1479
I0
aI5
aI0
asI1480
(lp1480
I0
aI1
aI4
asI1481
(lp1481
I1
aI2
aI2
asI1482
(lp1482
I2
aI1
aI2
asI1483
(lp1483
I1
aI1
aI3
asI1484
(lp1484
I0
aI4
aI1
asI1485
(lp1485
I3
aI1
aI1
asI1486
(lp1486
I0
aI5
aI0
asI1487
(lp1487
I3
aI1
aI1
asI1488
(lp1488
I0
aI0
aI5
asI1489
(lp1489
I0
aI3
aI2
asI1490
(lp1490
I0
aI1
aI4
asI1491
(lp1491
I0
aI2
aI3
asI1492
(lp1492
I0
aI1
aI4
asI1493
(lp1493
I0
aI1
aI4
asI1494
(lp1494
I0
aI1
aI4
asI1495
(lp1495
I0
aI1
aI4
asI1496
(lp1496
I0
aI1
aI4
asI1497
(lp1497
I0
aI0
aI5
asI1498
(lp1498
I0
aI0
aI5
asI1499
(lp1499
I0
aI1
aI4
asI1500
(lp1500
I0
aI3
aI2
asI1501
(lp1501
I0
aI0
aI5
asI1502
(lp1502
I0
aI0
aI5
asI1503
(lp1503
I0
aI0
aI5
asI1504
(lp1504
I0
aI0
aI5
asI1505
(lp1505
I0
aI2
aI3
asI1506
(lp1506
I0
aI0
aI5
asI1507
(lp1507
I0
aI4
aI1
asI1508
(lp1508
I0
aI5
aI0
asI1509
(lp1509
I0
aI5
aI0
asI1510
(lp1510
I0
aI1
aI4
asI1511
(lp1511
I0
aI0
aI5
asI1512
(lp1512
I0
aI4
aI1
asI1513
(lp1513
I0
aI3
aI2
asI1514
(lp1514
I0
aI3
aI2
asI1515
(lp1515
I1
aI3
aI1
asI1516
(lp1516
I1
aI0
aI4
asI1517
(lp1517
I1
aI2
aI2
asI1518
(lp1518
I0
aI2
aI3
asI1519
(lp1519
I2
aI2
aI1
asI1520
(lp1520
I3
aI2
aI0
asI1521
(lp1521
I1
aI1
aI3
asI1522
(lp1522
I0
aI4
aI1
asI1523
(lp1523
I3
aI1
aI1
asI1524
(lp1524
I3
aI1
aI1
asI1525
(lp1525
I3
aI1
aI1
asI1526
(lp1526
I0
aI5
aI0
asI1527
(lp1527
I0
aI2
aI3
asI1528
(lp1528
I0
aI1
aI4
asI1529
(lp1529
I0
aI0
aI5
asI1530
(lp1530
I0
aI0
aI5
asI1531
(lp1531
I0
aI1
aI4
asI1532
(lp1532
I0
aI1
aI4
asI1533
(lp1533
I0
aI1
aI4
asI1534
(lp1534
I1
aI1
aI3
asI1535
(lp1535
I2
aI3
aI0
asI1536
(lp1536
I1
aI0
aI4
asI1537
(lp1537
I0
aI1
aI4
asI1538
(lp1538
I0
aI1
aI4
asI1539
(lp1539
I2
aI2
aI1
asI1540
(lp1540
I1
aI2
aI2
asI1541
(lp1541
I0
aI1
aI4
asI1542
(lp1542
I0
aI1
aI4
asI1543
(lp1543
I0
aI1
aI4
asI1544
(lp1544
I0
aI2
aI3
asI1545
(lp1545
I0
aI3
aI2
asI1546
(lp1546
I0
aI1
aI4
asI1547
(lp1547
I0
aI3
aI2
asI1548
(lp1548
I0
aI0
aI5
asI1549
(lp1549
I0
aI0
aI5
asI1550
(lp1550
I0
aI0
aI5
asI1551
(lp1551
I0
aI2
aI3
asI1552
(lp1552
I0
aI2
aI3
asI1553
(lp1553
I0
aI0
aI5
asI1554
(lp1554
I0
aI4
aI1
asI1555
(lp1555
I0
aI0
aI5
asI1556
(lp1556
I0
aI0
aI5
asI1557
(lp1557
I0
aI0
aI5
asI1558
(lp1558
I0
aI0
aI5
asI1559
(lp1559
I1
aI1
aI3
asI1560
(lp1560
I0
aI0
aI5
asI1561
(lp1561
I0
aI4
aI1
asI1562
(lp1562
I1
aI1
aI3
asI1563
(lp1563
I0
aI1
aI4
asI1564
(lp1564
I4
aI0
aI1
asI1565
(lp1565
I4
aI1
aI0
asI1566
(lp1566
I2
aI2
aI1
asI1567
(lp1567
I3
aI2
aI0
asI1568
(lp1568
I1
aI1
aI3
asI1569
(lp1569
I2
aI2
aI1
asI1570
(lp1570
I1
aI1
aI3
asI1571
(lp1571
I0
aI1
aI4
asI1572
(lp1572
I0
aI0
aI5
asI1573
(lp1573
I4
aI1
aI0
asI1574
(lp1574
I0
aI0
aI5
asI1575
(lp1575
I3
aI1
aI1
asI1576
(lp1576
I0
aI0
aI5
asI1577
(lp1577
I0
aI1
aI4
asI1578
(lp1578
I0
aI0
aI5
asI1579
(lp1579
I4
aI1
aI0
asI1580
(lp1580
I0
aI4
aI1
asI1581
(lp1581
I0
aI0
aI5
asI1582
(lp1582
I1
aI2
aI2
asI1583
(lp1583
I0
aI4
aI1
asI1584
(lp1584
I0
aI0
aI5
asI1585
(lp1585
I1
aI3
aI1
asI1586
(lp1586
I0
aI2
aI3
asI1587
(lp1587
I0
aI3
aI2
asI1588
(lp1588
I0
aI2
aI3
asI1589
(lp1589
I0
aI2
aI3
asI1590
(lp1590
I0
aI3
aI2
asI1591
(lp1591
I0
aI1
aI4
asI1592
(lp1592
I0
aI1
aI4
asI1593
(lp1593
I0
aI2
aI3
asI1594
(lp1594
I0
aI1
aI4
asI1595
(lp1595
I0
aI1
aI4
asI1596
(lp1596
I0
aI5
aI0
asI1597
(lp1597
I0
aI0
aI5
asI1598
(lp1598
I0
aI0
aI5
asI1599
(lp1599
I0
aI0
aI5
asI1600
(lp1600
I0
aI0
aI5
asI1601
(lp1601
I1
aI2
aI2
asI1602
(lp1602
I1
aI2
aI2
asI1603
(lp1603
I1
aI2
aI2
asI1604
(lp1604
I3
aI1
aI1
asI1605
(lp1605
I1
aI3
aI1
asI1606
(lp1606
I4
aI1
aI0
asI1607
(lp1607
I0
aI2
aI3
asI1608
(lp1608
I0
aI4
aI1
asI1609
(lp1609
I4
aI1
aI0
asI1610
(lp1610
I0
aI3
aI2
asI1611
(lp1611
I0
aI2
aI3
asI1612
(lp1612
I4
aI1
aI0
asI1613
(lp1613
I5
aI0
aI0
asI1614
(lp1614
I1
aI3
aI1
asI1615
(lp1615
I1
aI2
aI2
asI1616
(lp1616
I1
aI2
aI2
asI1617
(lp1617
I0
aI3
aI2
asI1618
(lp1618
I0
aI3
aI2
asI1619
(lp1619
I0
aI4
aI1
asI1620
(lp1620
I0
aI2
aI3
asI1621
(lp1621
I0
aI3
aI2
asI1622
(lp1622
I0
aI5
aI0
asI1623
(lp1623
I0
aI1
aI4
asI1624
(lp1624
I0
aI2
aI3
asI1625
(lp1625
I3
aI2
aI0
asI1626
(lp1626
I0
aI1
aI4
asI1627
(lp1627
I3
aI2
aI0
asI1628
(lp1628
I0
aI2
aI3
asI1629
(lp1629
I0
aI2
aI3
asI1630
(lp1630
I0
aI2
aI3
asI1631
(lp1631
I4
aI1
aI0
asI1632
(lp1632
I0
aI3
aI2
asI1633
(lp1633
I0
aI2
aI3
asI1634
(lp1634
I0
aI4
aI1
asI1635
(lp1635
I0
aI4
aI1
asI1636
(lp1636
I1
aI3
aI1
asI1637
(lp1637
I0
aI2
aI3
asI1638
(lp1638
I2
aI2
aI1
asI1639
(lp1639
I1
aI2
aI2
asI1640
(lp1640
I1
aI4
aI0
asI1641
(lp1641
I1
aI1
aI3
asI1642
(lp1642
I4
aI1
aI0
asI1643
(lp1643
I1
aI3
aI1
asI1644
(lp1644
I1
aI1
aI3
asI1645
(lp1645
I4
aI1
aI0
asI1646
(lp1646
I0
aI5
aI0
asI1647
(lp1647
I0
aI1
aI4
asI1648
(lp1648
I2
aI3
aI0
asI1649
(lp1649
I0
aI4
aI1
asI1650
(lp1650
I4
aI1
aI0
asI1651
(lp1651
I0
aI3
aI2
asI1652
(lp1652
I0
aI3
aI2
asI1653
(lp1653
I0
aI4
aI1
asI1654
(lp1654
I0
aI4
aI1
asI1655
(lp1655
I0
aI4
aI1
asI1656
(lp1656
I0
aI1
aI4
asI1657
(lp1657
I0
aI1
aI4
asI1658
(lp1658
I0
aI4
aI1
asI1659
(lp1659
I0
aI4
aI1
asI1660
(lp1660
I2
aI2
aI1
asI1661
(lp1661
I0
aI4
aI1
asI1662
(lp1662
I0
aI1
aI4
asI1663
(lp1663
I0
aI1
aI4
asI1664
(lp1664
I1
aI1
aI3
asI1665
(lp1665
I0
aI2
aI3
asI1666
(lp1666
I0
aI2
aI3
asI1667
(lp1667
I0
aI3
aI2
asI1668
(lp1668
I0
aI2
aI3
asI1669
(lp1669
I0
aI2
aI3
asI1670
(lp1670
I0
aI2
aI3
asI1671
(lp1671
I0
aI2
aI3
asI1672
(lp1672
I0
aI3
aI2
asI1673
(lp1673
I1
aI2
aI2
asI1674
(lp1674
I1
aI2
aI2
asI1675
(lp1675
I0
aI2
aI3
asI1676
(lp1676
I0
aI2
aI3
asI1677
(lp1677
I0
aI4
aI1
asI1678
(lp1678
I0
aI3
aI2
asI1679
(lp1679
I0
aI3
aI2
asI1680
(lp1680
I1
aI2
aI2
asI1681
(lp1681
I0
aI3
aI2
asI1682
(lp1682
I0
aI2
aI3
asI1683
(lp1683
I0
aI3
aI2
asI1684
(lp1684
I0
aI2
aI3
asI1685
(lp1685
I0
aI2
aI3
asI1686
(lp1686
I0
aI2
aI3
asI1687
(lp1687
I0
aI4
aI1
asI1688
(lp1688
I0
aI5
aI0
asI1689
(lp1689
I0
aI2
aI3
asI1690
(lp1690
I1
aI1
aI3
asI1691
(lp1691
I0
aI2
aI3
asI1692
(lp1692
I0
aI2
aI3
asI1693
(lp1693
I0
aI4
aI1
asI1694
(lp1694
I0
aI2
aI3
asI1695
(lp1695
I0
aI3
aI2
asI1696
(lp1696
I0
aI2
aI3
asI1697
(lp1697
I0
aI3
aI2
asI1698
(lp1698
I1
aI3
aI1
asI1699
(lp1699
I1
aI2
aI2
asI1700
(lp1700
I0
aI2
aI3
asI1701
(lp1701
I2
aI2
aI1
asI1702
(lp1702
I0
aI5
aI0
asI1703
(lp1703
I0
aI5
aI0
asI1704
(lp1704
I0
aI5
aI0
asI1705
(lp1705
I1
aI0
aI4
asI1706
(lp1706
I1
aI3
aI1
asI1707
(lp1707
I2
aI3
aI0
asI1708
(lp1708
I0
aI5
aI0
asI1709
(lp1709
I1
aI4
aI0
asI1710
(lp1710
I1
aI4
aI0
asI1711
(lp1711
I1
aI3
aI1
asI1712
(lp1712
I0
aI5
aI0
asI1713
(lp1713
I0
aI4
aI1
asI1714
(lp1714
I0
aI2
aI3
asI1715
(lp1715
I0
aI4
aI1
asI1716
(lp1716
I1
aI3
aI1
asI1717
(lp1717
I1
aI1
aI3
asI1718
(lp1718
I1
aI0
aI4
asI1719
(lp1719
I1
aI1
aI3
asI1720
(lp1720
I1
aI4
aI0
asI1721
(lp1721
I1
aI4
aI0
asI1722
(lp1722
I1
aI2
aI2
asI1723
(lp1723
I1
aI4
aI0
asI1724
(lp1724
I1
aI1
aI3
asI1725
(lp1725
I1
aI4
aI0
asI1726
(lp1726
I1
aI2
aI2
asI1727
(lp1727
I1
aI4
aI0
asI1728
(lp1728
I0
aI2
aI3
asI1729
(lp1729
I0
aI4
aI1
asI1730
(lp1730
I0
aI4
aI1
asI1731
(lp1731
I0
aI5
aI0
asI1732
(lp1732
I0
aI3
aI2
asI1733
(lp1733
I0
aI5
aI0
asI1734
(lp1734
I0
aI4
aI1
asI1735
(lp1735
I0
aI4
aI1
asI1736
(lp1736
I1
aI2
aI2
asI1737
(lp1737
I0
aI1
aI4
asI1738
(lp1738
I4
aI1
aI0
asI1739
(lp1739
I4
aI1
aI0
asI1740
(lp1740
I3
aI2
aI0
asI1741
(lp1741
I4
aI1
aI0
asI1742
(lp1742
I4
aI1
aI0
asI1743
(lp1743
I4
aI1
aI0
asI1744
(lp1744
I0
aI2
aI3
asI1745
(lp1745
I0
aI2
aI3
asI1746
(lp1746
I1
aI3
aI1
asI1747
(lp1747
I1
aI2
aI2
asI1748
(lp1748
I1
aI1
aI3
asI1749
(lp1749
I1
aI1
aI3
asI1750
(lp1750
I1
aI1
aI3
asI1751
(lp1751
I0
aI2
aI3
asI1752
(lp1752
I0
aI3
aI2
asI1753
(lp1753
I0
aI1
aI4
asI1754
(lp1754
I0
aI1
aI4
asI1755
(lp1755
I0
aI1
aI4
asI1756
(lp1756
I0
aI4
aI1
asI1757
(lp1757
I1
aI1
aI3
asI1758
(lp1758
I1
aI2
aI2
asI1759
(lp1759
I4
aI1
aI0
asI1760
(lp1760
I0
aI5
aI0
asI1761
(lp1761
I0
aI5
aI0
asI1762
(lp1762
I0
aI3
aI2
asI1763
(lp1763
I0
aI5
aI0
asI1764
(lp1764
I0
aI3
aI2
asI1765
(lp1765
I0
aI5
aI0
asI1766
(lp1766
I0
aI1
aI4
asI1767
(lp1767
I0
aI1
aI4
asI1768
(lp1768
I0
aI3
aI2
asI1769
(lp1769
I0
aI2
aI3
asI1770
(lp1770
I0
aI3
aI2
asI1771
(lp1771
I0
aI2
aI3
asI1772
(lp1772
I0
aI1
aI4
asI1773
(lp1773
I0
aI2
aI3
asI1774
(lp1774
I0
aI1
aI4
asI1775
(lp1775
I1
aI3
aI1
asI1776
(lp1776
I0
aI1
aI4
asI1777
(lp1777
I1
aI3
aI1
asI1778
(lp1778
I2
aI1
aI2
asI1779
(lp1779
I2
aI1
aI2
asI1780
(lp1780
I1
aI0
aI4
asI1781
(lp1781
I0
aI4
aI1
asI1782
(lp1782
I1
aI1
aI3
asI1783
(lp1783
I0
aI2
aI3
asI1784
(lp1784
I1
aI4
aI0
asI1785
(lp1785
I1
aI1
aI3
asI1786
(lp1786
I0
aI2
aI3
asI1787
(lp1787
I0
aI3
aI2
asI1788
(lp1788
I0
aI3
aI2
asI1789
(lp1789
I0
aI4
aI1
asI1790
(lp1790
I0
aI2
aI3
asI1791
(lp1791
I0
aI4
aI1
asI1792
(lp1792
I0
aI2
aI3
asI1793
(lp1793
I4
aI1
aI0
asI1794
(lp1794
I0
aI3
aI2
asI1795
(lp1795
I0
aI2
aI3
asI1796
(lp1796
I1
aI0
aI4
asI1797
(lp1797
I1
aI0
aI4
asI1798
(lp1798
I0
aI4
aI1
asI1799
(lp1799
I0
aI2
aI3
asI1800
(lp1800
I1
aI0
aI4
asI1801
(lp1801
I0
aI1
aI4
asI1802
(lp1802
I0
aI1
aI4
asI1803
(lp1803
I0
aI2
aI3
asI1804
(lp1804
I0
aI2
aI3
asI1805
(lp1805
I0
aI4
aI1
asI1806
(lp1806
I2
aI2
aI1
asI1807
(lp1807
I1
aI2
aI2
asI1808
(lp1808
I3
aI1
aI1
asI1809
(lp1809
I0
aI3
aI2
asI1810
(lp1810
I0
aI4
aI1
asI1811
(lp1811
I0
aI5
aI0
asI1812
(lp1812
I0
aI2
aI3
asI1813
(lp1813
I0
aI3
aI2
asI1814
(lp1814
I0
aI2
aI3
asI1815
(lp1815
I0
aI2
aI3
asI1816
(lp1816
I4
aI1
aI0
asI1817
(lp1817
I1
aI3
aI1
asI1818
(lp1818
I0
aI2
aI3
asI1819
(lp1819
I0
aI4
aI1
asI1820
(lp1820
I0
aI4
aI1
asI1821
(lp1821
I3
aI1
aI1
asI1822
(lp1822
I0
aI4
aI1
asI1823
(lp1823
I0
aI4
aI1
asI1824
(lp1824
I0
aI4
aI1
asI1825
(lp1825
I0
aI5
aI0
asI1826
(lp1826
I1
aI3
aI1
asI1827
(lp1827
I1
aI2
aI2
asI1828
(lp1828
I2
aI1
aI2
asI1829
(lp1829
I1
aI2
aI2
asI1830
(lp1830
I2
aI1
aI2
asI1831
(lp1831
I1
aI0
aI4
asI1832
(lp1832
I1
aI2
aI2
asI1833
(lp1833
I1
aI0
aI4
asI1834
(lp1834
I0
aI3
aI2
asI1835
(lp1835
I2
aI0
aI3
asI1836
(lp1836
I1
aI2
aI2
asI1837
(lp1837
I1
aI2
aI2
asI1838
(lp1838
I1
aI2
aI2
asI1839
(lp1839
I1
aI3
aI1
asI1840
(lp1840
I2
aI1
aI2
asI1841
(lp1841
I2
aI2
aI1
asI1842
(lp1842
I2
aI2
aI1
asI1843
(lp1843
I2
aI2
aI1
asI1844
(lp1844
I1
aI4
aI0
asI1845
(lp1845
I1
aI3
aI1
asI1846
(lp1846
I1
aI3
aI1
asI1847
(lp1847
I2
aI2
aI1
asI1848
(lp1848
I1
aI3
aI1
asI1849
(lp1849
I1
aI2
aI2
asI1850
(lp1850
I1
aI3
aI1
asI1851
(lp1851
I2
aI1
aI2
asI1852
(lp1852
I2
aI1
aI2
asI1853
(lp1853
I2
aI2
aI1
asI1854
(lp1854
I1
aI3
aI1
asI1855
(lp1855
I1
aI2
aI2
asI1856
(lp1856
I2
aI2
aI1
asI1857
(lp1857
I1
aI1
aI3
asI1858
(lp1858
I2
aI1
aI2
asI1859
(lp1859
I1
aI2
aI2
asI1860
(lp1860
I1
aI2
aI2
asI1861
(lp1861
I0
aI5
aI0
asI1862
(lp1862
I1
aI2
aI2
asI1863
(lp1863
I0
aI3
aI2
asI1864
(lp1864
I0
aI2
aI3
asI1865
(lp1865
I0
aI3
aI2
asI1866
(lp1866
I0
aI2
aI3
asI1867
(lp1867
I1
aI1
aI3
asI1868
(lp1868
I1
aI2
aI2
asI1869
(lp1869
I1
aI2
aI2
asI1870
(lp1870
I1
aI1
aI3
asI1871
(lp1871
I1
aI4
aI0
asI1872
(lp1872
I2
aI2
aI1
asI1873
(lp1873
I1
aI3
aI1
asI1874
(lp1874
I1
aI3
aI1
asI1875
(lp1875
I2
aI2
aI1
asI1876
(lp1876
I1
aI1
aI3
asI1877
(lp1877
I0
aI3
aI2
asI1878
(lp1878
I0
aI3
aI2
asI1879
(lp1879
I1
aI2
aI2
asI1880
(lp1880
I1
aI1
aI3
asI1881
(lp1881
I1
aI1
aI3
asI1882
(lp1882
I0
aI1
aI4
asI1883
(lp1883
I1
aI1
aI3
asI1884
(lp1884
I1
aI1
aI3
asI1885
(lp1885
I0
aI2
aI3
asI1886
(lp1886
I1
aI1
aI3
asI1887
(lp1887
I2
aI0
aI3
asI1888
(lp1888
I1
aI1
aI3
asI1889
(lp1889
I2
aI0
aI3
asI1890
(lp1890
I1
aI1
aI3
asI1891
(lp1891
I1
aI1
aI3
asI1892
(lp1892
I0
aI2
aI3
asI1893
(lp1893
I0
aI3
aI2
asI1894
(lp1894
I1
aI2
aI2
asI1895
(lp1895
I1
aI2
aI2
asI1896
(lp1896
I0
aI4
aI1
asI1897
(lp1897
I1
aI2
aI2
asI1898
(lp1898
I1
aI2
aI2
asI1899
(lp1899
I0
aI2
aI3
asI1900
(lp1900
I1
aI2
aI2
asI1901
(lp1901
I0
aI2
aI3
asI1902
(lp1902
I1
aI4
aI0
asI1903
(lp1903
I0
aI1
aI4
asI1904
(lp1904
I1
aI3
aI1
asI1905
(lp1905
I0
aI3
aI2
asI1906
(lp1906
I1
aI3
aI1
asI1907
(lp1907
I3
aI2
aI0
asI1908
(lp1908
I1
aI1
aI3
asI1909
(lp1909
I1
aI1
aI3
asI1910
(lp1910
I1
aI3
aI1
asI1911
(lp1911
I1
aI1
aI3
asI1912
(lp1912
I0
aI2
aI3
asI1913
(lp1913
I0
aI2
aI3
asI1914
(lp1914
I0
aI4
aI1
asI1915
(lp1915
I1
aI2
aI2
asI1916
(lp1916
I3
aI2
aI0
asI1917
(lp1917
I1
aI1
aI3
asI1918
(lp1918
I2
aI3
aI0
asI1919
(lp1919
I2
aI3
aI0
asI1920
(lp1920
I2
aI3
aI0
asI1921
(lp1921
I2
aI1
aI2
asI1922
(lp1922
I1
aI2
aI2
asI1923
(lp1923
I3
aI2
aI0
asI1924
(lp1924
I5
aI0
aI0
asI1925
(lp1925
I5
aI0
aI0
asI1926
(lp1926
I1
aI0
aI4
asI1927
(lp1927
I1
aI2
aI2
asI1928
(lp1928
I4
aI1
aI0
asI1929
(lp1929
I0
aI3
aI2
asI1930
(lp1930
I0
aI2
aI3
asI1931
(lp1931
I4
aI1
aI0
asI1932
(lp1932
I1
aI3
aI1
asI1933
(lp1933
I2
aI2
aI1
asI1934
(lp1934
I2
aI3
aI0
asI1935
(lp1935
I4
aI1
aI0
asI1936
(lp1936
I1
aI2
aI2
asI1937
(lp1937
I4
aI1
aI0
asI1938
(lp1938
I1
aI0
aI4
asI1939
(lp1939
I2
aI3
aI0
asI1940
(lp1940
I2
aI3
aI0
asI1941
(lp1941
I1
aI2
aI2
asI1942
(lp1942
I0
aI3
aI2
asI1943
(lp1943
I0
aI4
aI1
asI1944
(lp1944
I0
aI2
aI3
asI1945
(lp1945
I2
aI3
aI0
asI1946
(lp1946
I2
aI2
aI1
asI1947
(lp1947
I0
aI2
aI3
asI1948
(lp1948
I4
aI1
aI0
asI1949
(lp1949
I0
aI4
aI1
asI1950
(lp1950
I0
aI2
aI3
asI1951
(lp1951
I5
aI0
aI0
asI1952
(lp1952
I0
aI2
aI3
asI1953
(lp1953
I5
aI0
aI0
asI1954
(lp1954
I0
aI4
aI1
asI1955
(lp1955
I0
aI5
aI0
asI1956
(lp1956
I2
aI0
aI3
asI1957
(lp1957
I1
aI1
aI3
asI1958
(lp1958
I0
aI2
aI3
asI1959
(lp1959
I1
aI0
aI4
asI1960
(lp1960
I1
aI1
aI3
asI1961
(lp1961
I1
aI0
aI4
asI1962
(lp1962
I3
aI2
aI0
asI1963
(lp1963
I0
aI3
aI2
asI1964
(lp1964
I2
aI3
aI0
asI1965
(lp1965
I1
aI3
aI1
asI1966
(lp1966
I2
aI0
aI3
asI1967
(lp1967
I1
aI1
aI3
asI1968
(lp1968
I2
aI2
aI1
asI1969
(lp1969
I2
aI2
aI1
asI1970
(lp1970
I2
aI1
aI2
asI1971
(lp1971
I1
aI0
aI4
asI1972
(lp1972
I0
aI2
aI3
asI1973
(lp1973
I1
aI0
aI4
asI1974
(lp1974
I0
aI3
aI2
asI1975
(lp1975
I1
aI0
aI4
asI1976
(lp1976
I1
aI1
aI3
asI1977
(lp1977
I1
aI2
aI2
asI1978
(lp1978
I1
aI1
aI3
asI1979
(lp1979
I2
aI0
aI3
asI1980
(lp1980
I2
aI0
aI3
asI1981
(lp1981
I1
aI1
aI3
asI1982
(lp1982
I0
aI3
aI2
asI1983
(lp1983
I0
aI3
aI2
asI1984
(lp1984
I0
aI4
aI1
asI1985
(lp1985
I1
aI2
aI2
asI1986
(lp1986
I0
aI2
aI3
asI1987
(lp1987
I1
aI1
aI3
asI1988
(lp1988
I2
aI3
aI0
asI1989
(lp1989
I0
aI2
aI3
asI1990
(lp1990
I2
aI0
aI3
asI1991
(lp1991
I1
aI2
aI2
asI1992
(lp1992
I1
aI0
aI4
asI1993
(lp1993
I0
aI5
aI0
asI1994
(lp1994
I1
aI3
aI1
asI1995
(lp1995
I1
aI4
aI0
asI1996
(lp1996
I1
aI1
aI3
asI1997
(lp1997
I1
aI4
aI0
asI1998
(lp1998
I0
aI2
aI3
asI1999
(lp1999
I0
aI3
aI2
asI2000
(lp2000
I1
aI4
aI0
asI2001
(lp2001
I0
aI1
aI4
asI2002
(lp2002
I0
aI3
aI2
asI2003
(lp2003
I1
aI3
aI1
asI2004
(lp2004
I0
aI1
aI4
asI2005
(lp2005
I1
aI3
aI1
asI2006
(lp2006
I1
aI2
aI2
asI2007
(lp2007
I0
aI2
aI3
asI2008
(lp2008
I0
aI0
aI5
asI2009
(lp2009
I1
aI1
aI3
asI2010
(lp2010
I0
aI4
aI1
asI2011
(lp2011
I1
aI1
aI3
asI2012
(lp2012
I1
aI2
aI2
asI2013
(lp2013
I1
aI1
aI3
asI2014
(lp2014
I0
aI3
aI2
asI2015
(lp2015
I0
aI2
aI3
asI2016
(lp2016
I2
aI2
aI1
asI2017
(lp2017
I2
aI2
aI1
asI2018
(lp2018
I0
aI4
aI1
asI2019
(lp2019
I0
aI3
aI2
asI2020
(lp2020
I1
aI4
aI0
asI2021
(lp2021
I1
aI1
aI3
asI2022
(lp2022
I1
aI0
aI4
asI2023
(lp2023
I1
aI4
aI0
asI2024
(lp2024
I1
aI1
aI3
asI2025
(lp2025
I1
aI1
aI3
asI2026
(lp2026
I1
aI2
aI2
asI2027
(lp2027
I2
aI1
aI2
asI2028
(lp2028
I2
aI1
aI2
asI2029
(lp2029
I1
aI1
aI3
asI2030
(lp2030
I2
aI1
aI2
asI2031
(lp2031
I1
aI1
aI3
asI2032
(lp2032
I1
aI0
aI4
asI2033
(lp2033
I1
aI3
aI1
asI2034
(lp2034
I1
aI1
aI3
asI2035
(lp2035
I2
aI2
aI1
asI2036
(lp2036
I3
aI2
aI0
asI2037
(lp2037
I2
aI0
aI3
asI2038
(lp2038
I3
aI0
aI2
asI2039
(lp2039
I1
aI1
aI3
asI2040
(lp2040
I1
aI2
aI2
asI2041
(lp2041
I1
aI0
aI4
asI2042
(lp2042
I0
aI0
aI5
asI2043
(lp2043
I0
aI1
aI4
asI2044
(lp2044
I1
aI1
aI3
asI2045
(lp2045
I0
aI2
aI3
asI2046
(lp2046
I1
aI0
aI4
asI2047
(lp2047
I1
aI0
aI4
asI2048
(lp2048
I1
aI1
aI3
asI2049
(lp2049
I2
aI1
aI2
asI2050
(lp2050
I1
aI1
aI3
asI2051
(lp2051
I2
aI1
aI2
asI2052
(lp2052
I5
aI0
aI0
asI2053
(lp2053
I2
aI1
aI2
asI2054
(lp2054
I2
aI1
aI2
asI2055
(lp2055
I1
aI1
aI3
asI2056
(lp2056
I1
aI1
aI3
asI2057
(lp2057
I1
aI1
aI3
asI2058
(lp2058
I1
aI2
aI2
asI2059
(lp2059
I0
aI1
aI4
asI2060
(lp2060
I0
aI1
aI4
asI2061
(lp2061
I1
aI1
aI3
asI2062
(lp2062
I2
aI1
aI2
asI2063
(lp2063
I2
aI1
aI2
asI2064
(lp2064
I0
aI2
aI3
asI2065
(lp2065
I1
aI2
aI2
asI2066
(lp2066
I1
aI1
aI3
asI2067
(lp2067
I0
aI2
aI3
asI2068
(lp2068
I1
aI1
aI3
asI2069
(lp2069
I1
aI2
aI2
asI2070
(lp2070
I0
aI2
aI3
asI2071
(lp2071
I1
aI1
aI3
asI2072
(lp2072
I0
aI3
aI2
asI2073
(lp2073
I1
aI2
aI2
asI2074
(lp2074
I1
aI1
aI3
asI2075
(lp2075
I1
aI4
aI0
asI2076
(lp2076
I0
aI2
aI3
asI2077
(lp2077
I1
aI2
aI2
asI2078
(lp2078
I1
aI1
aI3
asI2079
(lp2079
I0
aI4
aI1
asI2080
(lp2080
I1
aI3
aI1
asI2081
(lp2081
I1
aI3
aI1
asI2082
(lp2082
I1
aI3
aI1
asI2083
(lp2083
I1
aI4
aI0
asI2084
(lp2084
I1
aI4
aI0
asI2085
(lp2085
I1
aI4
aI0
asI2086
(lp2086
I1
aI2
aI2
asI2087
(lp2087
I0
aI3
aI2
asI2088
(lp2088
I1
aI2
aI2
asI2089
(lp2089
I1
aI2
aI2
asI2090
(lp2090
I1
aI3
aI1
asI2091
(lp2091
I0
aI0
aI5
asI2092
(lp2092
I0
aI3
aI2
asI2093
(lp2093
I1
aI3
aI1
asI2094
(lp2094
I0
aI2
aI3
asI2095
(lp2095
I0
aI1
aI4
asI2096
(lp2096
I1
aI0
aI4
asI2097
(lp2097
I1
aI2
aI2
asI2098
(lp2098
I0
aI2
aI3
asI2099
(lp2099
I0
aI5
aI0
asI2100
(lp2100
I1
aI2
aI2
asI2101
(lp2101
I1
aI1
aI3
asI2102
(lp2102
I0
aI3
aI2
asI2103
(lp2103
I0
aI0
aI5
asI2104
(lp2104
I2
aI0
aI3
asI2105
(lp2105
I0
aI1
aI4
asI2106
(lp2106
I5
aI0
aI0
asI2107
(lp2107
I4
aI0
aI1
asI2108
(lp2108
I1
aI4
aI0
asI2109
(lp2109
I1
aI2
aI2
asI2110
(lp2110
I0
aI0
aI5
asI2111
(lp2111
I0
aI0
aI5
asI2112
(lp2112
I4
aI0
aI1
asI2113
(lp2113
I0
aI0
aI5
asI2114
(lp2114
I0
aI0
aI5
asI2115
(lp2115
I1
aI4
aI0
asI2116
(lp2116
I3
aI2
aI0
asI2117
(lp2117
I1
aI0
aI4
asI2118
(lp2118
I1
aI1
aI3
asI2119
(lp2119
I1
aI3
aI1
asI2120
(lp2120
I0
aI1
aI4
asI2121
(lp2121
I0
aI1
aI4
asI2122
(lp2122
I0
aI3
aI2
asI2123
(lp2123
I0
aI3
aI2
asI2124
(lp2124
I0
aI0
aI5
asI2125
(lp2125
I1
aI2
aI2
asI2126
(lp2126
I0
aI2
aI3
asI2127
(lp2127
I0
aI0
aI5
asI2128
(lp2128
I0
aI2
aI3
asI2129
(lp2129
I0
aI4
aI1
asI2130
(lp2130
I1
aI2
aI2
asI2131
(lp2131
I0
aI3
aI2
asI2132
(lp2132
I0
aI0
aI5
asI2133
(lp2133
I0
aI0
aI5
asI2134
(lp2134
I0
aI2
aI3
asI2135
(lp2135
I0
aI3
aI2
asI2136
(lp2136
I0
aI0
aI5
asI2137
(lp2137
I0
aI3
aI2
asI2138
(lp2138
I0
aI1
aI4
asI2139
(lp2139
I0
aI1
aI4
asI2140
(lp2140
I0
aI1
aI4
asI2141
(lp2141
I0
aI2
aI3
asI2142
(lp2142
I0
aI3
aI2
asI2143
(lp2143
I0
aI1
aI4
asI2144
(lp2144
I0
aI3
aI2
asI2145
(lp2145
I1
aI3
aI1
asI2146
(lp2146
I0
aI1
aI4
asI2147
(lp2147
I0
aI0
aI5
asI2148
(lp2148
I1
aI0
aI4
asI2149
(lp2149
I0
aI0
aI5
asI2150
(lp2150
I0
aI0
aI5
asI2151
(lp2151
I1
aI0
aI4
asI2152
(lp2152
I0
aI0
aI5
asI2153
(lp2153
I0
aI3
aI2
asI2154
(lp2154
I0
aI1
aI4
asI2155
(lp2155
I0
aI1
aI4
asI2156
(lp2156
I0
aI2
aI3
asI2157
(lp2157
I0
aI3
aI2
asI2158
(lp2158
I0
aI0
aI5
asI2159
(lp2159
I0
aI1
aI4
asI2160
(lp2160
I0
aI0
aI5
asI2161
(lp2161
I0
aI0
aI5
asI2162
(lp2162
I0
aI1
aI4
asI2163
(lp2163
I0
aI1
aI4
asI2164
(lp2164
I0
aI0
aI5
asI2165
(lp2165
I1
aI0
aI4
asI2166
(lp2166
I0
aI0
aI5
asI2167
(lp2167
I0
aI0
aI5
asI2168
(lp2168
I0
aI0
aI5
asI2169
(lp2169
I0
aI0
aI5
asI2170
(lp2170
I0
aI0
aI5
asI2171
(lp2171
I0
aI1
aI4
asI2172
(lp2172
I2
aI0
aI3
asI2173
(lp2173
I0
aI0
aI5
asI2174
(lp2174
I2
aI3
aI0
asI2175
(lp2175
I3
aI1
aI1
asI2176
(lp2176
I5
aI0
aI0
asI2177
(lp2177
I4
aI1
aI0
asI2178
(lp2178
I1
aI1
aI3
asI2179
(lp2179
I4
aI1
aI0
asI2180
(lp2180
I0
aI0
aI5
asI2181
(lp2181
I1
aI0
aI4
asI2182
(lp2182
I1
aI1
aI3
asI2183
(lp2183
I0
aI1
aI4
asI2184
(lp2184
I2
aI0
aI3
asI2185
(lp2185
I0
aI1
aI4
asI2186
(lp2186
I0
aI0
aI5
asI2187
(lp2187
I0
aI0
aI5
asI2188
(lp2188
I0
aI1
aI4
asI2189
(lp2189
I0
aI1
aI4
asI2190
(lp2190
I0
aI1
aI4
asI2191
(lp2191
I0
aI1
aI4
asI2192
(lp2192
I0
aI0
aI5
asI2193
(lp2193
I0
aI0
aI5
asI2194
(lp2194
I1
aI0
aI4
asI2195
(lp2195
I1
aI0
aI4
asI2196
(lp2196
I2
aI0
aI3
asI2197
(lp2197
I2
aI1
aI2
asI2198
(lp2198
I0
aI1
aI4
asI2199
(lp2199
I1
aI3
aI1
asI2200
(lp2200
I0
aI1
aI4
asI2201
(lp2201
I2
aI0
aI1
asI2202
(lp2202
I0
aI0
aI3
asI2203
(lp2203
I0
aI0
aI3
asI2204
(lp2204
I0
aI0
aI3
asI2205
(lp2205
I0
aI0
aI3
asI2206
(lp2206
I5
aI0
aI0
asI2207
(lp2207
I5
aI0
aI0
asI2208
(lp2208
I5
aI0
aI0
asI2209
(lp2209
I0
aI4
aI1
asI2210
(lp2210
I0
aI0
aI5
asI2211
(lp2211
I0
aI1
aI4
asI2212
(lp2212
I0
aI0
aI5
asI2213
(lp2213
I2
aI0
aI3
asI2214
(lp2214
I0
aI0
aI5
asI2215
(lp2215
I0
aI2
aI3
asI2216
(lp2216
I0
aI4
aI3
asI2217
(lp2217
I0
aI0
aI7
asI2218
(lp2218
I5
aI0
aI2
asI2219
(lp2219
I0
aI1
aI6
asI2220
(lp2220
I0
aI1
aI6
asI2221
(lp2221
I4
aI0
aI2
asI2222
(lp2222
I1
aI0
aI5
asI2223
(lp2223
I3
aI3
aI0
asI2224
(lp2224
I0
aI0
aI6
asI2225
(lp2225
I6
aI0
aI0
asI2226
(lp2226
I0
aI1
aI6
asI2227
(lp2227
I0
aI1
aI6
asI2228
(lp2228
I6
aI1
aI0
asI2229
(lp2229
I7
aI0
aI0
asI2230
(lp2230
I6
aI1
aI0
asI2231
(lp2231
I0
aI3
aI2
asI2232
(lp2232
I5
aI0
aI0
asI2233
(lp2233
I0
aI2
aI3
asI2234
(lp2234
I0
aI3
aI2
asI2235
(lp2235
I5
aI0
aI0
asI2236
(lp2236
I5
aI0
aI1
asI2237
(lp2237
I6
aI0
aI0
asI2238
(lp2238
I0
aI0
aI6
asI2239
(lp2239
I0
aI1
aI5
asI2240
(lp2240
I0
aI3
aI3
asI2241
(lp2241
I7
aI0
aI0
asI2242
(lp2242
I0
aI1
aI6
asI2243
(lp2243
I0
aI2
aI5
asI2244
(lp2244
I0
aI1
aI6
asI2245
(lp2245
I0
aI2
aI5
asI2246
(lp2246
I0
aI2
aI4
asI2247
(lp2247
I0
aI2
aI4
asI2248
(lp2248
I0
aI1
aI5
asI2249
(lp2249
I0
aI0
aI6
asI2250
(lp2250
I0
aI0
aI6
asI2251
(lp2251
I1
aI0
aI5
asI2252
(lp2252
I1
aI4
aI1
asI2253
(lp2253
I0
aI5
aI1
asI2254
(lp2254
I6
aI0
aI0
asI2255
(lp2255
I0
aI2
aI4
asI2256
(lp2256
I4
aI0
aI2
asI2257
(lp2257
I6
aI0
aI0
asI2258
(lp2258
I4
aI0
aI2
asI2259
(lp2259
I6
aI0
aI0
asI2260
(lp2260
I5
aI1
aI0
asI2261
(lp2261
I5
aI0
aI2
asI2262
(lp2262
I0
aI3
aI4
asI2263
(lp2263
I7
aI0
aI0
asI2264
(lp2264
I7
aI0
aI0
asI2265
(lp2265
I7
aI0
aI0
asI2266
(lp2266
I0
aI1
aI5
asI2267
(lp2267
I0
aI1
aI5
asI2268
(lp2268
I1
aI1
aI4
asI2269
(lp2269
I0
aI1
aI5
asI2270
(lp2270
I1
aI2
aI3
asI2271
(lp2271
I1
aI1
aI3
asI2272
(lp2272
I2
aI0
aI3
asI2273
(lp2273
I2
aI1
aI2
asI2274
(lp2274
I1
aI0
aI4
asI2275
(lp2275
I2
aI0
aI3
asI2276
(lp2276
I0
aI0
aI5
asI2277
(lp2277
I0
aI1
aI4
asI2278
(lp2278
I0
aI2
aI3
asI2279
(lp2279
I0
aI0
aI5
asI2280
(lp2280
I0
aI0
aI5
asI2281
(lp2281
I0
aI0
aI6
asI2282
(lp2282
I0
aI1
aI5
asI2283
(lp2283
I1
aI4
aI1
asI2284
(lp2284
I0
aI1
aI5
asI2285
(lp2285
I0
aI3
aI3
asI2286
(lp2286
I0
aI0
aI5
asI2287
(lp2287
I0
aI0
aI5
asI2288
(lp2288
I0
aI0
aI5
asI2289
(lp2289
I0
aI0
aI5
asI2290
(lp2290
I0
aI0
aI5
asI2291
(lp2291
I2
aI1
aI4
asI2292
(lp2292
I2
aI0
aI5
asI2293
(lp2293
I2
aI0
aI5
asI2294
(lp2294
I1
aI0
aI6
asI2295
(lp2295
I2
aI0
aI5
asI2296
(lp2296
I1
aI0
aI6
asI2297
(lp2297
I1
aI0
aI6
asI2298
(lp2298
I0
aI0
aI7
asI2299
(lp2299
I0
aI0
aI7
asI2300
(lp2300
I0
aI0
aI7
asI2301
(lp2301
I0
aI0
aI5
asI2302
(lp2302
I0
aI0
aI5
asI2303
(lp2303
I0
aI0
aI5
asI2304
(lp2304
I0
aI0
aI5
asI2305
(lp2305
I0
aI0
aI5
asI2306
(lp2306
I0
aI1
aI4
asI2307
(lp2307
I0
aI4
aI1
asI2308
(lp2308
I0
aI0
aI5
asI2309
(lp2309
I0
aI1
aI4
asI2310
(lp2310
I0
aI2
aI3
asI2311
(lp2311
I0
aI0
aI5
asI2312
(lp2312
I0
aI0
aI5
asI2313
(lp2313
I5
aI0
aI0
asI2314
(lp2314
I5
aI0
aI0
asI2315
(lp2315
I1
aI3
aI1
asI2316
(lp2316
I0
aI1
aI4
asI2317
(lp2317
I0
aI1
aI4
asI2318
(lp2318
I1
aI1
aI3
asI2319
(lp2319
I1
aI1
aI3
asI2320
(lp2320
I1
aI1
aI3
asI2321
(lp2321
I1
aI0
aI4
asI2322
(lp2322
I0
aI2
aI3
asI2323
(lp2323
I4
aI0
aI1
asI2324
(lp2324
I0
aI0
aI5
asI2325
(lp2325
I4
aI1
aI0
asI2326
(lp2326
I0
aI2
aI3
asI2327
(lp2327
I0
aI1
aI4
asI2328
(lp2328
I2
aI2
aI1
asI2329
(lp2329
I0
aI0
aI5
asI2330
(lp2330
I1
aI0
aI4
asI2331
(lp2331
I0
aI3
aI2
asI2332
(lp2332
I0
aI0
aI5
asI2333
(lp2333
I0
aI2
aI3
asI2334
(lp2334
I0
aI1
aI4
asI2335
(lp2335
I1
aI1
aI3
asI2336
(lp2336
I0
aI4
aI1
asI2337
(lp2337
I5
aI0
aI0
asI2338
(lp2338
I5
aI0
aI0
asI2339
(lp2339
I0
aI1
aI4
asI2340
(lp2340
I0
aI3
aI2
asI2341
(lp2341
I3
aI1
aI1
asI2342
(lp2342
I0
aI1
aI4
asI2343
(lp2343
I0
aI3
aI2
asI2344
(lp2344
I0
aI1
aI4
asI2345
(lp2345
I4
aI1
aI0
asI2346
(lp2346
I0
aI4
aI1
asI2347
(lp2347
I0
aI0
aI5
asI2348
(lp2348
I3
aI2
aI0
asI2349
(lp2349
I5
aI0
aI0
asI2350
(lp2350
I0
aI0
aI5
asI2351
(lp2351
I0
aI1
aI4
asI2352
(lp2352
I0
aI2
aI3
asI2353
(lp2353
I0
aI1
aI4
asI2354
(lp2354
I0
aI1
aI4
asI2355
(lp2355
I0
aI0
aI5
asI2356
(lp2356
I0
aI1
aI4
asI2357
(lp2357
I0
aI1
aI4
asI2358
(lp2358
I1
aI1
aI3
asI2359
(lp2359
I0
aI1
aI4
asI2360
(lp2360
I0
aI1
aI4
asI2361
(lp2361
I3
aI2
aI0
asI2362
(lp2362
I0
aI1
aI4
asI2363
(lp2363
I0
aI1
aI4
asI2364
(lp2364
I0
aI3
aI2
asI2365
(lp2365
I0
aI1
aI4
asI2366
(lp2366
I0
aI3
aI2
asI2367
(lp2367
I0
aI4
aI1
asI2368
(lp2368
I0
aI4
aI1
asI2369
(lp2369
I2
aI3
aI0
asI2370
(lp2370
I0
aI3
aI2
asI2371
(lp2371
I0
aI1
aI4
asI2372
(lp2372
I0
aI4
aI1
asI2373
(lp2373
I0
aI3
aI2
asI2374
(lp2374
I0
aI2
aI3
asI2375
(lp2375
I0
aI3
aI2
asI2376
(lp2376
I1
aI0
aI4
asI2377
(lp2377
I1
aI4
aI0
asI2378
(lp2378
I0
aI0
aI5
asI2379
(lp2379
I0
aI0
aI5
asI2380
(lp2380
I1
aI0
aI4
asI2381
(lp2381
I0
aI0
aI5
asI2382
(lp2382
I0
aI0
aI5
asI2383
(lp2383
I0
aI0
aI5
asI2384
(lp2384
I0
aI0
aI5
asI2385
(lp2385
I0
aI0
aI5
asI2386
(lp2386
I0
aI1
aI4
asI2387
(lp2387
I0
aI0
aI5
asI2388
(lp2388
I0
aI1
aI4
asI2389
(lp2389
I0
aI1
aI4
asI2390
(lp2390
I0
aI1
aI4
asI2391
(lp2391
I0
aI1
aI4
asI2392
(lp2392
I0
aI1
aI4
asI2393
(lp2393
I0
aI1
aI4
asI2394
(lp2394
I0
aI3
aI2
asI2395
(lp2395
I0
aI2
aI3
asI2396
(lp2396
I1
aI1
aI3
asI2397
(lp2397
I0
aI0
aI5
asI2398
(lp2398
I4
aI1
aI0
asI2399
(lp2399
I0
aI0
aI5
asI2400
(lp2400
I0
aI1
aI4
asI2401
(lp2401
I0
aI1
aI4
asI2402
(lp2402
I0
aI0
aI5
asI2403
(lp2403
I0
aI1
aI4
asI2404
(lp2404
I0
aI1
aI4
asI2405
(lp2405
I0
aI2
aI3
asI2406
(lp2406
I0
aI0
aI5
asI2407
(lp2407
I0
aI4
aI1
asI2408
(lp2408
I0
aI2
aI3
asI2409
(lp2409
I0
aI2
aI3
asI2410
(lp2410
I0
aI1
aI4
asI2411
(lp2411
I0
aI1
aI4
asI2412
(lp2412
I0
aI1
aI4
asI2413
(lp2413
I0
aI1
aI4
asI2414
(lp2414
I0
aI1
aI4
asI2415
(lp2415
I0
aI1
aI4
asI2416
(lp2416
I4
aI1
aI0
asI2417
(lp2417
I3
aI0
aI2
asI2418
(lp2418
I4
aI1
aI0
asI2419
(lp2419
I0
aI1
aI4
asI2420
(lp2420
I0
aI2
aI3
asI2421
(lp2421
I0
aI4
aI1
asI2422
(lp2422
I3
aI1
aI1
asI2423
(lp2423
I4
aI1
aI0
asI2424
(lp2424
I0
aI2
aI3
asI2425
(lp2425
I0
aI3
aI2
asI2426
(lp2426
I0
aI0
aI5
asI2427
(lp2427
I2
aI3
aI0
asI2428
(lp2428
I5
aI0
aI0
asI2429
(lp2429
I2
aI3
aI0
asI2430
(lp2430
I0
aI5
aI0
asI2431
(lp2431
I0
aI1
aI4
asI2432
(lp2432
I4
aI0
aI1
asI2433
(lp2433
I5
aI0
aI0
asI2434
(lp2434
I0
aI0
aI5
asI2435
(lp2435
I4
aI0
aI1
asI2436
(lp2436
I3
aI0
aI1
asI2437
(lp2437
I0
aI4
aI0
asI2438
(lp2438
I3
aI0
aI1
asI2439
(lp2439
I0
aI2
aI2
asI2440
(lp2440
I0
aI2
aI2
asI2441
(lp2441
I0
aI3
aI2
asI2442
(lp2442
I0
aI3
aI2
asI2443
(lp2443
I4
aI0
aI1
asI2444
(lp2444
I3
aI0
aI2
asI2445
(lp2445
I4
aI1
aI0
asI2446
(lp2446
I0
aI5
aI0
asI2447
(lp2447
I1
aI4
aI0
asI2448
(lp2448
I2
aI2
aI1
asI2449
(lp2449
I0
aI3
aI2
asI2450
(lp2450
I4
aI1
aI0
asI2451
(lp2451
I0
aI2
aI3
asI2452
(lp2452
I0
aI0
aI5
asI2453
(lp2453
I3
aI1
aI1
asI2454
(lp2454
I4
aI0
aI1
asI2455
(lp2455
I0
aI3
aI2
asI2456
(lp2456
I0
aI1
aI4
asI2457
(lp2457
I0
aI2
aI3
asI2458
(lp2458
I0
aI2
aI3
asI2459
(lp2459
I0
aI1
aI4
asI2460
(lp2460
I0
aI2
aI3
asI2461
(lp2461
I0
aI0
aI4
asI2462
(lp2462
I0
aI1
aI3
asI2463
(lp2463
I0
aI2
aI2
asI2464
(lp2464
I0
aI2
aI2
asI2465
(lp2465
I0
aI4
aI0
asI2466
(lp2466
I0
aI0
aI4
asI2467
(lp2467
I0
aI0
aI4
asI2468
(lp2468
I0
aI0
aI4
asI2469
(lp2469
I0
aI2
aI2
asI2470
(lp2470
I0
aI1
aI3
asI2471
(lp2471
I0
aI1
aI3
asI2472
(lp2472
I1
aI1
aI2
asI2473
(lp2473
I0
aI1
aI3
asI2474
(lp2474
I0
aI4
aI0
asI2475
(lp2475
I0
aI3
aI1
asI2476
(lp2476
I1
aI1
aI3
asI2477
(lp2477
I3
aI2
aI0
asI2478
(lp2478
I2
aI3
aI0
asI2479
(lp2479
I0
aI4
aI1
asI2480
(lp2480
I4
aI1
aI0
asI2481
(lp2481
I4
aI0
aI1
asI2482
(lp2482
I0
aI1
aI4
asI2483
(lp2483
I0
aI0
aI5
asI2484
(lp2484
I4
aI0
aI1
asI2485
(lp2485
I4
aI0
aI1
asI2486
(lp2486
I0
aI4
aI1
asI2487
(lp2487
I0
aI4
aI1
asI2488
(lp2488
I0
aI4
aI1
asI2489
(lp2489
I0
aI4
aI1
asI2490
(lp2490
I0
aI4
aI1
asI2491
(lp2491
I0
aI3
aI1
asI2492
(lp2492
I0
aI1
aI3
asI2493
(lp2493
I0
aI1
aI3
asI2494
(lp2494
I0
aI1
aI3
asI2495
(lp2495
I0
aI2
aI2
asI2496
(lp2496
I0
aI3
aI2
asI2497
(lp2497
I0
aI1
aI4
asI2498
(lp2498
I4
aI0
aI1
asI2499
(lp2499
I0
aI1
aI4
asI2500
(lp2500
I0
aI1
aI4
asI2501
(lp2501
I0
aI0
aI4
asI2502
(lp2502
I0
aI0
aI4
asI2503
(lp2503
I0
aI1
aI3
asI2504
(lp2504
I0
aI1
aI3
asI2505
(lp2505
I0
aI1
aI3
asI2506
(lp2506
I0
aI1
aI3
asI2507
(lp2507
I0
aI1
aI3
asI2508
(lp2508
I1
aI1
aI2
asI2509
(lp2509
I0
aI1
aI3
asI2510
(lp2510
I0
aI1
aI3
asI2511
(lp2511
I0
aI1
aI2
asI2512
(lp2512
I0
aI1
aI2
asI2513
(lp2513
I0
aI1
aI2
asI2514
(lp2514
I0
aI1
aI2
asI2515
(lp2515
I0
aI1
aI2
asI2516
(lp2516
I0
aI1
aI4
asI2517
(lp2517
I0
aI1
aI4
asI2518
(lp2518
I1
aI1
aI3
asI2519
(lp2519
I0
aI1
aI4
asI2520
(lp2520
I0
aI3
aI2
asI2521
(lp2521
I0
aI0
aI4
asI2522
(lp2522
I1
aI1
aI2
asI2523
(lp2523
I1
aI2
aI1
asI2524
(lp2524
I1
aI1
aI2
asI2525
(lp2525
I0
aI2
aI2
asI2526
(lp2526
I0
aI1
aI4
asI2527
(lp2527
I0
aI1
aI4
asI2528
(lp2528
I0
aI1
aI4
asI2529
(lp2529
I0
aI1
aI4
asI2530
(lp2530
I0
aI1
aI4
asI2531
(lp2531
I4
aI0
aI0
asI2532
(lp2532
I3
aI1
aI0
asI2533
(lp2533
I4
aI0
aI0
asI2534
(lp2534
I3
aI1
aI0
asI2535
(lp2535
I4
aI0
aI0
asI2536
(lp2536
I0
aI3
aI1
asI2537
(lp2537
I4
aI0
aI0
asI2538
(lp2538
I4
aI0
aI0
asI2539
(lp2539
I0
aI3
aI1
asI2540
(lp2540
I4
aI0
aI0
asI2541
(lp2541
I3
aI2
aI0
asI2542
(lp2542
I5
aI0
aI0
asI2543
(lp2543
I5
aI0
aI0
asI2544
(lp2544
I3
aI2
aI0
asI2545
(lp2545
I5
aI0
aI0
asI2546
(lp2546
I0
aI3
aI2
asI2547
(lp2547
I0
aI2
aI3
asI2548
(lp2548
I0
aI2
aI3
asI2549
(lp2549
I0
aI1
aI4
asI2550
(lp2550
I0
aI1
aI4
asI2551
(lp2551
I0
aI2
aI3
asI2552
(lp2552
I0
aI4
aI1
asI2553
(lp2553
I0
aI1
aI4
asI2554
(lp2554
I0
aI1
aI4
asI2555
(lp2555
I3
aI2
aI0
asI2556
(lp2556
I4
aI0
aI1
asI2557
(lp2557
I4
aI0
aI1
asI2558
(lp2558
I0
aI3
aI2
asI2559
(lp2559
I4
aI0
aI1
asI2560
(lp2560
I1
aI1
aI3
asI2561
(lp2561
I0
aI3
aI2
asI2562
(lp2562
I0
aI5
aI0
asI2563
(lp2563
I5
aI0
aI0
asI2564
(lp2564
I4
aI1
aI0
asI2565
(lp2565
I0
aI1
aI4
asI2566
(lp2566
I0
aI1
aI3
asI2567
(lp2567
I0
aI1
aI3
asI2568
(lp2568
I0
aI1
aI3
asI2569
(lp2569
I0
aI2
aI2
asI2570
(lp2570
I0
aI2
aI2
asI2571
(lp2571
I0
aI1
aI3
asI2572
(lp2572
I0
aI1
aI3
asI2573
(lp2573
I2
aI0
aI2
asI2574
(lp2574
I0
aI1
aI3
asI2575
(lp2575
I0
aI1
aI3
asI2576
(lp2576
I0
aI1
aI3
asI2577
(lp2577
I0
aI1
aI3
asI2578
(lp2578
I0
aI1
aI3
asI2579
(lp2579
I0
aI2
aI2
asI2580
(lp2580
I0
aI1
aI3
asI2581
(lp2581
I1
aI3
aI1
asI2582
(lp2582
I0
aI1
aI4
asI2583
(lp2583
I0
aI4
aI1
asI2584
(lp2584
I0
aI1
aI4
asI2585
(lp2585
I0
aI1
aI4
asI2586
(lp2586
I0
aI1
aI4
asI2587
(lp2587
I0
aI1
aI4
asI2588
(lp2588
I0
aI1
aI4
asI2589
(lp2589
I0
aI1
aI4
asI2590
(lp2590
I0
aI1
aI4
asI2591
(lp2591
I0
aI1
aI4
asI2592
(lp2592
I0
aI1
aI4
asI2593
(lp2593
I0
aI1
aI4
asI2594
(lp2594
I0
aI1
aI4
asI2595
(lp2595
I0
aI1
aI4
as(dp2596
I1
F0.8
sI2
F-0.2
sI3
F-0.4
sI4
F-0.2
sI5
F-0.2
sI6
F0.6
sI7
F0.0
sI8
F0.0
sI9
F0.6
sI10
F0.8
sI11
F0.6
sI12
F0.6
sI13
F0.2
sI14
F0.8
sI15
F0.8
sI16
F0.8
sI17
F1.0
sI18
F0.8
sI19
F1.0
sI20
F-0.8
sI21
F0.4
sI22
F0.8
sI23
F0.2
sI24
F0.6
sI25
F0.8
sI26
F0.0
sI27
F-0.2
sI28
F0.0
sI29
F0.8
sI30
F0.8
sI31
F-0.4
sI32
F0.8
sI33
F0.6
sI34
F0.6
sI35
F0.6
sI36
F0.8
sI37
F-1.0
sI38
F0.8
sI39
F0.4
sI40
F0.4
sI41
F0.4
sI42
F0.8
sI43
F0.8
sI44
F0.4
sI45
F0.8
sI46
F0.8
sI47
F0.6
sI48
F1.0
sI49
F0.0
sI50
F-0.2
sI51
F0.8
sI52
F1.0
sI53
F0.6
sI54
F0.6
sI55
F1.0
sI56
F0.4
sI57
F0.8
sI58
F0.6
sI59
F1.0
sI60
F0.6
sI61
F1.0
sI62
F0.8
sI63
F0.6
sI64
F1.0
sI65
F1.0
sI66
F0.8
sI67
F1.0
sI68
F1.0
sI69
F0.6
sI70
F0.4
sI71
F0.2
sI72
F0.6
sI73
F0.4
sI74
F0.0
sI75
F0.0
sI76
F0.4
sI77
F0.6
sI78
F0.6
sI79
F-1.0
sI80
F0.2
sI81
F0.6
sI82
F1.0
sI83
F0.6
sI84
F0.0
sI85
F0.6
sI86
F0.4
sI87
F0.2
sI88
F0.8
sI89
F-0.6
sI90
F-0.2
sI91
F0.4
sI92
F0.2
sI93
F0.0
sI94
F0.8
sI95
F0.4
sI96
F0.0
sI97
F0.6
sI98
F0.2
sI99
F0.6
sI100
F0.0
sI101
F0.6
sI102
F0.8
sI103
F0.6
sI104
F0.8
sI105
F1.0
sI106
F0.8
sI107
F1.0
sI108
F0.8
sI109
F0.6
sI110
F0.8
sI111
F1.0
sI112
F1.0
sI113
F1.0
sI114
F0.8
sI115
F0.6
sI116
F0.6
sI117
F0.6
sI118
F0.6
sI119
F0.6
sI120
F0.4
sI121
F0.6
sI122
F0.2
sI123
F0.4
sI124
F0.4
sI125
F-0.2
sI126
F0.2
sI127
F0.2
sI128
F0.8
sI129
F0.6
sI130
F0.6
sI131
F0.4
sI132
F-0.2
sI133
F0.2
sI134
F0.4
sI135
F0.2
sI136
F0.4
sI137
F0.2
sI138
F0.2
sI139
F0.6
sI140
F0.8
sI141
F0.8
sI142
F0.8
sI143
F0.6
sI144
F0.4
sI145
F0.6
sI146
F0.8
sI147
F0.8
sI148
F1.0
sI149
F0.6
sI150
F0.8
sI151
F0.4
sI152
F0.6
sI153
F0.4
sI154
F0.5
sI155
F0.4
sI156
F0.8
sI157
F1.0
sI158
F0.4
sI159
F0.5
sI160
F0.8
sI161
F0.8
sI162
F0.2
sI163
F-0.2
sI164
F1.0
sI165
F0.8
sI166
F0.2
sI167
F1.0
sI168
F0.4
sI169
F0.6
sI170
F0.6
sI171
F0.8
sI172
F0.4
sI173
F0.2
sI174
F0.4
sI175
F0.4
sI176
F0.6
sI177
F0.8
sI178
F0.6
sI179
F0.4
sI180
F0.8
sI181
F0.6
sI182
F1.0
sI183
F0.8
sI184
F1.0
sI185
F0.8
sI186
F1.0
sI187
F0.8
sI188
F0.8
sI189
F0.4
sI190
F0.8
sI191
F0.75
sI192
F1.0
sI193
F0.2
sI194
F1.0
sI195
F0.8
sI196
F0.6
sI197
F0.4
sI198
F1.0
sI199
F0.2
sI200
F0.8
sI201
F1.0
sI202
F0.8
sI203
F0.6
sI204
F1.0
sI205
F0.6
sI206
F1.0
sI207
F0.2
sI208
F0.6
sI209
F-0.2
sI210
F0.6
sI211
F0.6
sI212
F0.6
sI213
F0.6
sI214
F0.2
sI215
F0.8
sI216
F0.8
sI217
F-0.8
sI218
F1.0
sI219
F0.8
sI220
F0.6
sI221
F0.4
sI222
F0.4
sI223
F0.4
sI224
F0.4
sI225
F0.8
sI226
F0.6
sI227
F0.8
sI228
F1.0
sI229
F0.0
sI230
F0.6
sI231
F0.4
sI232
F0.6
sI233
F0.4
sI234
F0.2
sI235
F-0.6
sI236
F0.4
sI237
F-0.4
sI238
F0.8
sI239
F0.8
sI240
F-0.2
sI241
F1.0
sI242
F-0.8
sI243
F1.0
sI244
F0.4
sI245
F0.0
sI246
F0.2
sI247
F-0.4
sI248
F-0.6
sI249
F0.8
sI250
F-0.4
sI251
F0.8
sI252
F0.0
sI253
F-1.0
sI254
F0.6
sI255
F-0.4
sI256
F0.0
sI257
F-0.8
sI258
F-0.6
sI259
F-0.8
sI260
F-0.2
sI261
F0.2
sI262
F0.4
sI263
F-0.2
sI264
F-0.6
sI265
F-0.2
sI266
F-0.2
sI267
F-1.0
sI268
F0.0
sI269
F-0.8
sI270
F-1.0
sI271
F-1.0
sI272
F-0.6
sI273
F-0.6
sI274
F0.2
sI275
F-1.0
sI276
F0.8
sI277
F0.8
sI278
F0.8
sI279
F1.0
sI280
F0.8
sI281
F1.0
sI282
F0.6
sI283
F0.2
sI284
F0.4
sI285
F0.8
sI286
F0.6
sI287
F1.0
sI288
F0.6
sI289
F0.6
sI290
F0.8
sI291
F0.4
sI292
F-0.8
sI293
F0.0
sI294
F0.4
sI295
F-0.2
sI296
F0.2
sI297
F-0.4
sI298
F0.0
sI299
F-0.2
sI300
F1.0
sI301
F0.5714285714285714
sI302
F-0.14285714285714285
sI303
F0.14285714285714285
sI304
F0.5
sI305
F-0.14285714285714285
sI306
F-0.5555555555555556
sI307
F-0.1111111111111111
sI308
F0.3333333333333333
sI309
F0.1111111111111111
sI310
F-0.1111111111111111
sI311
F-0.4444444444444444
sI312
F0.5555555555555556
sI313
F-0.6666666666666666
sI314
F-0.5555555555555556
sI315
F0.7777777777777778
sI316
F0.6666666666666666
sI317
F0.6666666666666666
sI318
F0.7777777777777778
sI319
F0.4444444444444444
sI320
F0.5555555555555556
sI321
F1.0
sI322
F1.0
sI323
F0.6666666666666666
sI324
F0.3333333333333333
sI325
F-1.0
sI326
F0.4444444444444444
sI327
F-0.6666666666666666
sI328
F0.4444444444444444
sI329
F-0.8888888888888888
sI330
F-0.3333333333333333
sI331
F0.0
sI332
F0.125
sI333
F0.5
sI334
F0.75
sI335
F0.625
sI336
F0.6666666666666666
sI337
F0.3333333333333333
sI338
F0.2222222222222222
sI339
F0.3333333333333333
sI340
F0.7777777777777778
sI341
F1.0
sI342
F1.0
sI343
F0.6666666666666666
sI344
F0.7777777777777778
sI345
F0.6666666666666666
sI346
F0.8888888888888888
sI347
F0.6666666666666666
sI348
F0.7777777777777778
sI349
F0.5555555555555556
sI350
F0.6666666666666666
sI351
F0.8888888888888888
sI352
F0.8888888888888888
sI353
F0.4444444444444444
sI354
F0.8888888888888888
sI355
F0.8888888888888888
sI356
F0.5555555555555556
sI357
F0.7777777777777778
sI358
F0.7777777777777778
sI359
F0.7777777777777778
sI360
F0.8888888888888888
sI361
F0.5555555555555556
sI362
F0.4444444444444444
sI363
F0.7777777777777778
sI364
F0.6666666666666666
sI365
F0.6666666666666666
sI366
F1.0
sI367
F1.0
sI368
F1.0
sI369
F1.0
sI370
F1.0
sI371
F0.8888888888888888
sI372
F0.4444444444444444
sI373
F0.5555555555555556
sI374
F0.1111111111111111
sI375
F0.3333333333333333
sI376
F-0.3333333333333333
sI377
F-0.5555555555555556
sI378
F0.7777777777777778
sI379
F0.0
sI380
F-0.5555555555555556
sI381
F-0.75
sI382
F0.125
sI383
F-0.375
sI384
F0.0
sI385
F0.625
sI386
F0.5555555555555556
sI387
F0.5555555555555556
sI388
F1.0
sI389
F0.8888888888888888
sI390
F0.0
sI391
F-0.5
sI392
F1.0
sI393
F0.8333333333333334
sI394
F0.8333333333333334
sI395
F1.0
sI396
F0.875
sI397
F0.875
sI398
F0.875
sI399
F0.875
sI400
F0.875
sI401
F0.2
sI402
F-0.2
sI403
F0.6
sI404
F1.0
sI405
F0.2
sI406
F0.6
sI407
F0.6
sI408
F1.0
sI409
F1.0
sI410
F-0.6
sI411
F-1.0
sI412
F1.0
sI413
F1.0
sI414
F0.6
sI415
F0.8
sI416
F0.8
sI417
F0.8
sI418
F0.2
sI419
F0.6
sI420
F1.0
sI421
F-0.6
sI422
F0.8
sI423
F-0.2
sI424
F0.0
sI425
F0.8
sI426
F1.0
sI427
F0.6
sI428
F-0.6
sI429
F0.6
sI430
F0.4
sI431
F1.0
sI432
F-1.0
sI433
F0.4
sI434
F-0.4
sI435
F0.0
sI436
F0.8
sI437
F0.0
sI438
F-0.2
sI439
F0.0
sI440
F0.4
sI441
F-0.6
sI442
F-0.2
sI443
F-0.2
sI444
F0.8
sI445
F-1.0
sI446
F0.2
sI447
F1.0
sI448
F1.0
sI449
F0.8
sI450
F1.0
sI451
F1.0
sI452
F0.4
sI453
F0.4
sI454
F0.4
sI455
F0.8
sI456
F0.8
sI457
F0.4
sI458
F0.2
sI459
F1.0
sI460
F0.6
sI461
F0.6
sI462
F0.6
sI463
F0.8
sI464
F0.4
sI465
F0.4
sI466
F-0.2
sI467
F0.8
sI468
F-0.4
sI469
F0.2
sI470
F0.0
sI471
F1.0
sI472
F0.2
sI473
F0.0
sI474
F-1.0
sI475
F0.8
sI476
F0.4
sI477
F1.0
sI478
F-1.0
sI479
F-0.4
sI480
F0.8
sI481
F1.0
sI482
F1.0
sI483
F1.0
sI484
F0.8
sI485
F0.8
sI486
F0.8
sI487
F0.6
sI488
F0.6
sI489
F0.6
sI490
F0.8
sI491
F0.6
sI492
F1.0
sI493
F0.6
sI494
F0.8
sI495
F0.8
sI496
F0.6
sI497
F1.0
sI498
F0.8
sI499
F0.4
sI500
F0.8
sI501
F0.2
sI502
F0.8
sI503
F0.2
sI504
F0.6
sI505
F-1.0
sI506
F-1.0
sI507
F-0.8
sI508
F0.0
sI509
F-1.0
sI510
F0.0
sI511
F-1.0
sI512
F-1.0
sI513
F0.8
sI514
F0.2
sI515
F-1.0
sI516
F0.4
sI517
F0.8
sI518
F-1.0
sI519
F0.2
sI520
F0.4
sI521
F0.4
sI522
F-0.6
sI523
F0.4
sI524
F0.4
sI525
F0.6
sI526
F0.6
sI527
F-1.0
sI528
F0.6
sI529
F0.0
sI530
F-0.6
sI531
F-0.4
sI532
F-0.2
sI533
F-0.4
sI534
F0.4
sI535
F0.4
sI536
F-1.0
sI537
F-1.0
sI538
F-0.4
sI539
F-0.4
sI540
F-0.6
sI541
F0.0
sI542
F-0.4
sI543
F-0.2
sI544
F0.0
sI545
F0.4
sI546
F0.4
sI547
F0.2
sI548
F0.6
sI549
F0.4
sI550
F0.2
sI551
F0.2
sI552
F0.6
sI553
F0.6
sI554
F0.2
sI555
F0.2
sI556
F0.6
sI557
F0.2
sI558
F-0.2
sI559
F-0.2
sI560
F-1.0
sI561
F0.8
sI562
F-0.2
sI563
F0.0
sI564
F-0.4
sI565
F-0.4
sI566
F-1.0
sI567
F0.4
sI568
F-0.2
sI569
F-1.0
sI570
F0.0
sI571
F0.8
sI572
F0.8
sI573
F-0.4
sI574
F0.6
sI575
F-1.0
sI576
F0.4
sI577
F0.4
sI578
F0.4
sI579
F-1.0
sI580
F0.2
sI581
F0.4
sI582
F-0.6
sI583
F0.2
sI584
F-0.4
sI585
F0.2
sI586
F0.0
sI587
F0.4
sI588
F-1.0
sI589
F-1.0
sI590
F-1.0
sI591
F0.4
sI592
F0.8
sI593
F0.8
sI594
F-1.0
sI595
F0.2
sI596
F0.2
sI597
F0.4
sI598
F-1.0
sI599
F0.8
sI600
F0.2
sI601
F0.2
sI602
F0.8
sI603
F0.4
sI604
F0.6
sI605
F0.4
sI606
F0.4
sI607
F0.4
sI608
F0.4
sI609
F-0.4
sI610
F0.6
sI611
F0.8
sI612
F-0.8
sI613
F-0.8
sI614
F0.2
sI615
F-0.8
sI616
F-0.8
sI617
F-0.2
sI618
F0.0
sI619
F-0.8
sI620
F0.6
sI621
F0.4
sI622
F-0.8
sI623
F-0.6
sI624
F0.0
sI625
F0.6
sI626
F-0.8
sI627
F0.6
sI628
F0.0
sI629
F-0.2
sI630
F0.4
sI631
F0.2
sI632
F-0.2
sI633
F0.4
sI634
F0.2
sI635
F0.2
sI636
F0.2
sI637
F0.4
sI638
F0.6
sI639
F0.8
sI640
F0.6
sI641
F0.2
sI642
F0.8
sI643
F1.0
sI644
F0.8
sI645
F0.6
sI646
F0.2
sI647
F0.6
sI648
F0.6
sI649
F1.0
sI650
F0.4
sI651
F0.2
sI652
F0.6
sI653
F-0.2
sI654
F-0.2
sI655
F0.0
sI656
F0.4
sI657
F0.2
sI658
F0.2
sI659
F-0.2
sI660
F0.2
sI661
F0.0
sI662
F0.0
sI663
F0.0
sI664
F-0.4
sI665
F0.4
sI666
F0.6
sI667
F0.4
sI668
F0.8
sI669
F0.0
sI670
F0.4
sI671
F0.4
sI672
F0.2
sI673
F-0.4
sI674
F0.4
sI675
F0.4
sI676
F0.2
sI677
F-0.2
sI678
F0.6
sI679
F0.4
sI680
F0.4
sI681
F0.2
sI682
F0.6
sI683
F0.6
sI684
F0.6
sI685
F0.2
sI686
F0.8
sI687
F0.2
sI688
F-0.6
sI689
F1.0
sI690
F0.6
sI691
F-0.6
sI692
F-0.4
sI693
F-0.4
sI694
F-1.0
sI695
F0.4
sI696
F0.8
sI697
F0.0
sI698
F0.8
sI699
F-0.6
sI700
F0.4
sI701
F0.8
sI702
F-1.0
sI703
F-0.6
sI704
F0.8
sI705
F1.0
sI706
F0.2
sI707
F0.6
sI708
F1.0
sI709
F1.0
sI710
F1.0
sI711
F0.8
sI712
F0.0
sI713
F0.6
sI714
F1.0
sI715
F0.8
sI716
F0.6
sI717
F0.0
sI718
F0.0
sI719
F0.4
sI720
F0.4
sI721
F1.0
sI722
F0.4
sI723
F0.8
sI724
F1.0
sI725
F1.0
sI726
F0.8
sI727
F1.0
sI728
F0.6
sI729
F0.8
sI730
F0.6
sI731
F0.8
sI732
F0.6
sI733
F0.8
sI734
F0.8
sI735
F1.0
sI736
F1.0
sI737
F0.0
sI738
F0.8
sI739
F1.0
sI740
F0.0
sI741
F1.0
sI742
F-0.8
sI743
F-0.6
sI744
F-0.4
sI745
F-0.2
sI746
F0.8
sI747
F0.2
sI748
F1.0
sI749
F0.2
sI750
F1.0
sI751
F0.6
sI752
F0.6
sI753
F0.8
sI754
F0.6
sI755
F0.8
sI756
F0.6
sI757
F0.8
sI758
F0.4
sI759
F0.6
sI760
F0.6
sI761
F1.0
sI762
F0.6
sI763
F1.0
sI764
F0.4
sI765
F1.0
sI766
F0.6
sI767
F1.0
sI768
F0.6
sI769
F0.8
sI770
F1.0
sI771
F0.4
sI772
F0.0
sI773
F1.0
sI774
F0.6
sI775
F0.2
sI776
F-0.2
sI777
F0.2
sI778
F0.2
sI779
F0.6
sI780
F0.0
sI781
F-0.2
sI782
F0.2
sI783
F0.6
sI784
F0.2
sI785
F0.2
sI786
F-0.4
sI787
F0.0
sI788
F0.6
sI789
F-0.2
sI790
F1.0
sI791
F0.6
sI792
F-1.0
sI793
F0.8
sI794
F-0.2
sI795
F0.8
sI796
F0.6
sI797
F0.6
sI798
F0.6
sI799
F0.6
sI800
F1.0
sI801
F0.4
sI802
F0.6
sI803
F0.8
sI804
F0.8
sI805
F0.4
sI806
F1.0
sI807
F1.0
sI808
F0.6
sI809
F1.0
sI810
F1.0
sI811
F1.0
sI812
F1.0
sI813
F0.6
sI814
F0.6
sI815
F0.4
sI816
F0.6
sI817
F0.8
sI818
F0.8
sI819
F1.0
sI820
F1.0
sI821
F0.6
sI822
F0.6
sI823
F0.6
sI824
F0.8
sI825
F0.6
sI826
F0.8
sI827
F0.8
sI828
F0.0
sI829
F1.0
sI830
F0.8
sI831
F1.0
sI832
F0.4
sI833
F1.0
sI834
F0.4
sI835
F1.0
sI836
F0.4
sI837
F0.6
sI838
F0.6
sI839
F0.8
sI840
F0.4
sI841
F0.6
sI842
F0.8
sI843
F0.8
sI844
F1.0
sI845
F0.2
sI846
F0.6
sI847
F0.8
sI848
F0.8
sI849
F1.0
sI850
F0.8
sI851
F0.8
sI852
F0.8
sI853
F0.4
sI854
F0.6
sI855
F0.4
sI856
F1.0
sI857
F0.6
sI858
F0.6
sI859
F-0.2
sI860
F0.6
sI861
F0.2
sI862
F1.0
sI863
F0.2
sI864
F1.0
sI865
F0.6
sI866
F0.4
sI867
F1.0
sI868
F0.4
sI869
F0.8
sI870
F0.8
sI871
F0.6
sI872
F0.2
sI873
F0.6
sI874
F0.6
sI875
F0.6
sI876
F0.8
sI877
F0.2
sI878
F0.0
sI879
F0.8
sI880
F0.4
sI881
F0.8
sI882
F0.6
sI883
F0.6
sI884
F0.6
sI885
F0.6
sI886
F0.6
sI887
F0.2
sI888
F0.6
sI889
F-0.6
sI890
F0.6
sI891
F0.6
sI892
F0.8
sI893
F0.8
sI894
F0.0
sI895
F-0.8
sI896
F-0.6
sI897
F0.8
sI898
F0.6
sI899
F-0.2
sI900
F-0.4
sI901
F-0.6
sI902
F0.2
sI903
F0.2
sI904
F-0.6
sI905
F1.0
sI906
F0.8
sI907
F1.0
sI908
F-0.6
sI909
F0.0
sI910
F1.0
sI911
F0.8
sI912
F0.2
sI913
F0.4
sI914
F0.6
sI915
F0.6
sI916
F0.8
sI917
F0.4
sI918
F0.8
sI919
F0.8
sI920
F1.0
sI921
F0.8
sI922
F0.6
sI923
F0.6
sI924
F0.8
sI925
F1.0
sI926
F0.6
sI927
F0.6
sI928
F-0.6
sI929
F0.2
sI930
F1.0
sI931
F1.0
sI932
F0.0
sI933
F-0.2
sI934
F-0.2
sI935
F1.0
sI936
F0.8
sI937
F0.6
sI938
F0.6
sI939
F0.6
sI940
F-1.0
sI941
F-0.2
sI942
F0.4
sI943
F0.8
sI944
F0.2
sI945
F0.8
sI946
F1.0
sI947
F1.0
sI948
F0.8
sI949
F0.8
sI950
F0.6
sI951
F0.8
sI952
F1.0
sI953
F0.6
sI954
F0.8
sI955
F1.0
sI956
F1.0
sI957
F1.0
sI958
F1.0
sI959
F0.2
sI960
F1.0
sI961
F1.0
sI962
F0.8
sI963
F1.0
sI964
F0.6
sI965
F0.0
sI966
F0.4
sI967
F0.6
sI968
F1.0
sI969
F0.8
sI970
F0.6
sI971
F0.8
sI972
F-0.4
sI973
F0.6
sI974
F0.8
sI975
F0.6
sI976
F1.0
sI977
F1.0
sI978
F0.8
sI979
F0.8
sI980
F0.8
sI981
F0.2
sI982
F0.8
sI983
F0.6
sI984
F0.4
sI985
F0.6
sI986
F1.0
sI987
F0.8
sI988
F0.6
sI989
F1.0
sI990
F0.6
sI991
F1.0
sI992
F0.2
sI993
F1.0
sI994
F1.0
sI995
F1.0
sI996
F1.0
sI997
F1.0
sI998
F0.8
sI999
F1.0
sI1000
F1.0
sI1001
F0.6
sI1002
F0.8
sI1003
F0.6
sI1004
F0.2
sI1005
F0.4
sI1006
F0.4
sI1007
F0.4
sI1008
F0.4
sI1009
F0.4
sI1010
F0.6
sI1011
F0.6
sI1012
F0.4
sI1013
F0.4
sI1014
F0.6
sI1015
F0.0
sI1016
F0.8
sI1017
F0.6
sI1018
F0.6
sI1019
F0.2
sI1020
F0.4
sI1021
F0.6
sI1022
F0.4
sI1023
F0.8
sI1024
F0.2
sI1025
F-0.4
sI1026
F0.8
sI1027
F-0.4
sI1028
F0.4
sI1029
F1.0
sI1030
F0.4
sI1031
F0.6
sI1032
F0.0
sI1033
F0.8
sI1034
F0.8
sI1035
F0.8
sI1036
F0.6
sI1037
F0.4
sI1038
F0.2
sI1039
F-0.2
sI1040
F0.4
sI1041
F0.0
sI1042
F0.0
sI1043
F0.6
sI1044
F0.2
sI1045
F0.2
sI1046
F0.2
sI1047
F0.2
sI1048
F0.0
sI1049
F0.8
sI1050
F0.2
sI1051
F0.6
sI1052
F0.4
sI1053
F0.6
sI1054
F0.6
sI1055
F0.6
sI1056
F1.0
sI1057
F0.8
sI1058
F0.2
sI1059
F-0.4
sI1060
F0.4
sI1061
F0.2
sI1062
F0.2
sI1063
F0.8
sI1064
F0.4
sI1065
F0.8
sI1066
F0.6
sI1067
F0.4
sI1068
F0.6
sI1069
F0.6
sI1070
F0.6
sI1071
F0.6
sI1072
F0.8
sI1073
F0.6
sI1074
F0.6
sI1075
F0.6
sI1076
F0.2
sI1077
F0.0
sI1078
F0.4
sI1079
F0.6
sI1080
F0.6
sI1081
F0.4
sI1082
F0.4
sI1083
F-0.6
sI1084
F0.8
sI1085
F0.6
sI1086
F0.0
sI1087
F0.2
sI1088
F0.6
sI1089
F0.2
sI1090
F0.4
sI1091
F0.4
sI1092
F0.0
sI1093
F0.2
sI1094
F0.6
sI1095
F0.4
sI1096
F1.0
sI1097
F0.4
sI1098
F0.0
sI1099
F0.2
sI1100
F0.4
sI1101
F0.0
sI1102
F0.8
sI1103
F0.2
sI1104
F0.4
sI1105
F0.8
sI1106
F0.8
sI1107
F0.4
sI1108
F0.8
sI1109
F0.8
sI1110
F1.0
sI1111
F0.4
sI1112
F0.6
sI1113
F0.4
sI1114
F1.0
sI1115
F0.2
sI1116
F0.8
sI1117
F0.6
sI1118
F0.8
sI1119
F0.2
sI1120
F0.6
sI1121
F0.8
sI1122
F0.4
sI1123
F1.0
sI1124
F0.4
sI1125
F0.6
sI1126
F0.8
sI1127
F1.0
sI1128
F0.8
sI1129
F1.0
sI1130
F-1.0
sI1131
F-1.0
sI1132
F-1.0
sI1133
F-0.8
sI1134
F-0.8
sI1135
F-0.6
sI1136
F0.6
sI1137
F0.2
sI1138
F0.0
sI1139
F-0.6
sI1140
F0.4
sI1141
F-1.0
sI1142
F0.4
sI1143
F0.8
sI1144
F0.4
sI1145
F0.6
sI1146
F0.8
sI1147
F0.6
sI1148
F0.6
sI1149
F0.0
sI1150
F0.8
sI1151
F1.0
sI1152
F0.6
sI1153
F0.8
sI1154
F0.2
sI1155
F0.6
sI1156
F0.4
sI1157
F-1.0
sI1158
F-0.2
sI1159
F-0.8
sI1160
F0.0
sI1161
F-0.2
sI1162
F0.2
sI1163
F0.6
sI1164
F0.8
sI1165
F0.0
sI1166
F0.4
sI1167
F0.0
sI1168
F0.8
sI1169
F-0.6
sI1170
F0.0
sI1171
F-0.2
sI1172
F-0.8
sI1173
F1.0
sI1174
F0.6
sI1175
F1.0
sI1176
F1.0
sI1177
F0.8
sI1178
F0.6
sI1179
F-0.2
sI1180
F0.4
sI1181
F0.4
sI1182
F0.8
sI1183
F1.0
sI1184
F0.6
sI1185
F-1.0
sI1186
F1.0
sI1187
F-1.0
sI1188
F-0.8
sI1189
F1.0
sI1190
F-0.8
sI1191
F0.2
sI1192
F0.6
sI1193
F1.0
sI1194
F0.6
sI1195
F-0.2
sI1196
F-0.2
sI1197
F-0.4
sI1198
F-0.6
sI1199
F-1.0
sI1200
F0.6
sI1201
F0.6
sI1202
F-0.2
sI1203
F0.6
sI1204
F0.4
sI1205
F1.0
sI1206
F0.6
sI1207
F0.8
sI1208
F0.8
sI1209
F0.2
sI1210
F0.2
sI1211
F0.25
sI1212
F0.75
sI1213
F0.5
sI1214
F0.75
sI1215
F0.5
sI1216
F0.6
sI1217
F0.4
sI1218
F0.4
sI1219
F0.2
sI1220
F0.6
sI1221
F0.2
sI1222
F-0.4
sI1223
F0.0
sI1224
F1.0
sI1225
F0.6
sI1226
F-0.75
sI1227
F-0.75
sI1228
F-0.5
sI1229
F-0.75
sI1230
F-0.25
sI1231
F-0.4
sI1232
F0.0
sI1233
F-0.8
sI1234
F-0.6
sI1235
F0.8
sI1236
F-0.8
sI1237
F-0.8
sI1238
F-0.8
sI1239
F-0.8
sI1240
F-0.8
sI1241
F-0.8
sI1242
F-0.8
sI1243
F-0.6
sI1244
F-0.6
sI1245
F-0.8
sI1246
F0.0
sI1247
F-0.6
sI1248
F0.4
sI1249
F-1.0
sI1250
F0.4
sI1251
F-0.75
sI1252
F-0.5
sI1253
F0.0
sI1254
F-0.25
sI1255
F0.75
sI1256
F1.0
sI1257
F1.0
sI1258
F1.0
sI1259
F1.0
sI1260
F1.0
sI1261
F0.4
sI1262
F0.8
sI1263
F0.6
sI1264
F0.6
sI1265
F0.6
sI1266
F0.6
sI1267
F0.2
sI1268
F0.2
sI1269
F0.2
sI1270
F0.6
sI1271
F0.8
sI1272
F0.4
sI1273
F0.2
sI1274
F0.8
sI1275
F0.6
sI1276
F0.75
sI1277
F0.75
sI1278
F0.75
sI1279
F0.75
sI1280
F0.75
sI1281
F0.8
sI1282
F1.0
sI1283
F1.0
sI1284
F0.4
sI1285
F0.6
sI1286
F0.8
sI1287
F0.8
sI1288
F0.8
sI1289
F0.8
sI1290
F0.8
sI1291
F0.6
sI1292
F1.0
sI1293
F0.8
sI1294
F0.8
sI1295
F0.8
sI1296
F0.4
sI1297
F0.6
sI1298
F0.4
sI1299
F0.0
sI1300
F0.4
sI1301
F0.8
sI1302
F0.8
sI1303
F0.2
sI1304
F0.6
sI1305
F0.6
sI1306
F0.8
sI1307
F0.8
sI1308
F0.8
sI1309
F0.8
sI1310
F1.0
sI1311
F1.0
sI1312
F0.6
sI1313
F0.4
sI1314
F0.6
sI1315
F0.6
sI1316
F0.6
sI1317
F0.8
sI1318
F0.8
sI1319
F0.6
sI1320
F0.8
sI1321
F0.75
sI1322
F-1.0
sI1323
F0.5
sI1324
F0.75
sI1325
F0.25
sI1326
F0.2
sI1327
F0.0
sI1328
F0.4
sI1329
F-1.0
sI1330
F0.0
sI1331
F0.4
sI1332
F0.6
sI1333
F-0.6
sI1334
F0.2
sI1335
F-1.0
sI1336
F-1.0
sI1337
F0.0
sI1338
F-0.8
sI1339
F0.4
sI1340
F-1.0
sI1341
F-1.0
sI1342
F0.0
sI1343
F0.0
sI1344
F0.0
sI1345
F0.0
sI1346
F-1.0
sI1347
F0.0
sI1348
F0.4
sI1349
F0.8
sI1350
F-0.8
sI1351
F1.0
sI1352
F-1.0
sI1353
F0.6
sI1354
F1.0
sI1355
F1.0
sI1356
F0.8
sI1357
F0.6
sI1358
F0.8
sI1359
F-0.8
sI1360
F0.4
sI1361
F0.8
sI1362
F-0.6
sI1363
F0.0
sI1364
F0.8
sI1365
F0.0
sI1366
F0.8
sI1367
F0.4
sI1368
F0.0
sI1369
F0.2
sI1370
F0.8
sI1371
F1.0
sI1372
F-0.75
sI1373
F0.75
sI1374
F0.25
sI1375
F0.0
sI1376
F1.0
sI1377
F-0.4
sI1378
F0.2
sI1379
F1.0
sI1380
F0.8
sI1381
F0.2
sI1382
F0.0
sI1383
F-0.4
sI1384
F0.4
sI1385
F0.6
sI1386
F-0.25
sI1387
F-1.0
sI1388
F-0.75
sI1389
F1.0
sI1390
F0.5
sI1391
F-0.75
sI1392
F-0.75
sI1393
F1.0
sI1394
F1.0
sI1395
F0.75
sI1396
F0.8
sI1397
F0.8
sI1398
F0.8
sI1399
F0.8
sI1400
F0.8
sI1401
F0.6
sI1402
F1.0
sI1403
F0.8
sI1404
F1.0
sI1405
F0.8
sI1406
F1.0
sI1407
F0.8
sI1408
F1.0
sI1409
F0.6
sI1410
F0.6
sI1411
F1.0
sI1412
F0.6
sI1413
F0.6
sI1414
F0.8
sI1415
F0.8
sI1416
F0.8
sI1417
F0.8
sI1418
F0.6
sI1419
F0.8
sI1420
F0.4
sI1421
F0.6
sI1422
F0.8
sI1423
F0.2
sI1424
F0.2
sI1425
F0.8
sI1426
F0.4
sI1427
F0.6
sI1428
F0.6
sI1429
F0.8
sI1430
F0.6
sI1431
F1.0
sI1432
F0.8
sI1433
F0.6
sI1434
F0.8
sI1435
F0.8
sI1436
F0.8
sI1437
F0.8
sI1438
F0.8
sI1439
F0.8
sI1440
F0.4
sI1441
F0.6
sI1442
F0.6
sI1443
F0.4
sI1444
F0.6
sI1445
F0.6
sI1446
F0.6
sI1447
F0.4
sI1448
F0.6
sI1449
F0.6
sI1450
F0.4
sI1451
F0.0
sI1452
F0.4
sI1453
F0.4
sI1454
F-0.6
sI1455
F-0.2
sI1456
F0.0
sI1457
F-0.2
sI1458
F0.4
sI1459
F-0.2
sI1460
F0.0
sI1461
F0.8
sI1462
F-0.2
sI1463
F0.8
sI1464
F-0.2
sI1465
F1.0
sI1466
F0.8
sI1467
F1.0
sI1468
F1.0
sI1469
F1.0
sI1470
F0.8
sI1471
F0.6
sI1472
F0.6
sI1473
F0.6
sI1474
F0.4
sI1475
F0.8
sI1476
F-0.6
sI1477
F0.8
sI1478
F0.0
sI1479
F0.0
sI1480
F0.8
sI1481
F0.2
sI1482
F0.0
sI1483
F0.4
sI1484
F0.2
sI1485
F-0.4
sI1486
F0.0
sI1487
F-0.4
sI1488
F1.0
sI1489
F0.4
sI1490
F0.8
sI1491
F0.6
sI1492
F0.8
sI1493
F0.8
sI1494
F0.8
sI1495
F0.8
sI1496
F0.8
sI1497
F1.0
sI1498
F1.0
sI1499
F0.8
sI1500
F0.4
sI1501
F1.0
sI1502
F1.0
sI1503
F1.0
sI1504
F1.0
sI1505
F0.6
sI1506
F1.0
sI1507
F0.2
sI1508
F0.0
sI1509
F0.0
sI1510
F0.8
sI1511
F1.0
sI1512
F0.2
sI1513
F0.4
sI1514
F0.4
sI1515
F0.0
sI1516
F0.6
sI1517
F0.2
sI1518
F0.6
sI1519
F-0.2
sI1520
F-0.6
sI1521
F0.4
sI1522
F0.2
sI1523
F-0.4
sI1524
F-0.4
sI1525
F-0.4
sI1526
F0.0
sI1527
F0.6
sI1528
F0.8
sI1529
F1.0
sI1530
F1.0
sI1531
F0.8
sI1532
F0.8
sI1533
F0.8
sI1534
F0.4
sI1535
F-0.4
sI1536
F0.6
sI1537
F0.8
sI1538
F0.8
sI1539
F-0.2
sI1540
F0.2
sI1541
F0.8
sI1542
F0.8
sI1543
F0.8
sI1544
F0.6
sI1545
F0.4
sI1546
F0.8
sI1547
F0.4
sI1548
F1.0
sI1549
F1.0
sI1550
F1.0
sI1551
F0.6
sI1552
F0.6
sI1553
F1.0
sI1554
F0.2
sI1555
F1.0
sI1556
F1.0
sI1557
F1.0
sI1558
F1.0
sI1559
F0.4
sI1560
F1.0
sI1561
F0.2
sI1562
F0.4
sI1563
F0.8
sI1564
F-0.6
sI1565
F-0.8
sI1566
F-0.2
sI1567
F-0.6
sI1568
F0.4
sI1569
F-0.2
sI1570
F0.4
sI1571
F0.8
sI1572
F1.0
sI1573
F-0.8
sI1574
F1.0
sI1575
F-0.4
sI1576
F1.0
sI1577
F0.8
sI1578
F1.0
sI1579
F-0.8
sI1580
F0.2
sI1581
F1.0
sI1582
F0.2
sI1583
F0.2
sI1584
F1.0
sI1585
F0.0
sI1586
F0.6
sI1587
F0.4
sI1588
F0.6
sI1589
F0.6
sI1590
F0.4
sI1591
F0.8
sI1592
F0.8
sI1593
F0.6
sI1594
F0.8
sI1595
F0.8
sI1596
F0.0
sI1597
F1.0
sI1598
F1.0
sI1599
F1.0
sI1600
F1.0
sI1601
F0.2
sI1602
F0.2
sI1603
F0.2
sI1604
F-0.4
sI1605
F0.0
sI1606
F-0.8
sI1607
F0.6
sI1608
F0.2
sI1609
F-0.8
sI1610
F0.4
sI1611
F0.6
sI1612
F-0.8
sI1613
F-1.0
sI1614
F0.0
sI1615
F0.2
sI1616
F0.2
sI1617
F0.4
sI1618
F0.4
sI1619
F0.2
sI1620
F0.6
sI1621
F0.4
sI1622
F0.0
sI1623
F0.8
sI1624
F0.6
sI1625
F-0.6
sI1626
F0.8
sI1627
F-0.6
sI1628
F0.6
sI1629
F0.6
sI1630
F0.6
sI1631
F-0.8
sI1632
F0.4
sI1633
F0.6
sI1634
F0.2
sI1635
F0.2
sI1636
F0.0
sI1637
F0.6
sI1638
F-0.2
sI1639
F0.2
sI1640
F-0.2
sI1641
F0.4
sI1642
F-0.8
sI1643
F0.0
sI1644
F0.4
sI1645
F-0.8
sI1646
F0.0
sI1647
F0.8
sI1648
F-0.4
sI1649
F0.2
sI1650
F-0.8
sI1651
F0.4
sI1652
F0.4
sI1653
F0.2
sI1654
F0.2
sI1655
F0.2
sI1656
F0.8
sI1657
F0.8
sI1658
F0.2
sI1659
F0.2
sI1660
F-0.2
sI1661
F0.2
sI1662
F0.8
sI1663
F0.8
sI1664
F0.4
sI1665
F0.6
sI1666
F0.6
sI1667
F0.4
sI1668
F0.6
sI1669
F0.6
sI1670
F0.6
sI1671
F0.6
sI1672
F0.4
sI1673
F0.2
sI1674
F0.2
sI1675
F0.6
sI1676
F0.6
sI1677
F0.2
sI1678
F0.4
sI1679
F0.4
sI1680
F0.2
sI1681
F0.4
sI1682
F0.6
sI1683
F0.4
sI1684
F0.6
sI1685
F0.6
sI1686
F0.6
sI1687
F0.2
sI1688
F0.0
sI1689
F0.6
sI1690
F0.4
sI1691
F0.6
sI1692
F0.6
sI1693
F0.2
sI1694
F0.6
sI1695
F0.4
sI1696
F0.6
sI1697
F0.4
sI1698
F0.0
sI1699
F0.2
sI1700
F0.6
sI1701
F-0.2
sI1702
F0.0
sI1703
F0.0
sI1704
F0.0
sI1705
F0.6
sI1706
F0.0
sI1707
F-0.4
sI1708
F0.0
sI1709
F-0.2
sI1710
F-0.2
sI1711
F0.0
sI1712
F0.0
sI1713
F0.2
sI1714
F0.6
sI1715
F0.2
sI1716
F0.0
sI1717
F0.4
sI1718
F0.6
sI1719
F0.4
sI1720
F-0.2
sI1721
F-0.2
sI1722
F0.2
sI1723
F-0.2
sI1724
F0.4
sI1725
F-0.2
sI1726
F0.2
sI1727
F-0.2
sI1728
F0.6
sI1729
F0.2
sI1730
F0.2
sI1731
F0.0
sI1732
F0.4
sI1733
F0.0
sI1734
F0.2
sI1735
F0.2
sI1736
F0.2
sI1737
F0.8
sI1738
F-0.8
sI1739
F-0.8
sI1740
F-0.6
sI1741
F-0.8
sI1742
F-0.8
sI1743
F-0.8
sI1744
F0.6
sI1745
F0.6
sI1746
F0.0
sI1747
F0.2
sI1748
F0.4
sI1749
F0.4
sI1750
F0.4
sI1751
F0.6
sI1752
F0.4
sI1753
F0.8
sI1754
F0.8
sI1755
F0.8
sI1756
F0.2
sI1757
F0.4
sI1758
F0.2
sI1759
F-0.8
sI1760
F0.0
sI1761
F0.0
sI1762
F0.4
sI1763
F0.0
sI1764
F0.4
sI1765
F0.0
sI1766
F0.8
sI1767
F0.8
sI1768
F0.4
sI1769
F0.6
sI1770
F0.4
sI1771
F0.6
sI1772
F0.8
sI1773
F0.6
sI1774
F0.8
sI1775
F0.0
sI1776
F0.8
sI1777
F0.0
sI1778
F0.0
sI1779
F0.0
sI1780
F0.6
sI1781
F0.2
sI1782
F0.4
sI1783
F0.6
sI1784
F-0.2
sI1785
F0.4
sI1786
F0.6
sI1787
F0.4
sI1788
F0.4
sI1789
F0.2
sI1790
F0.6
sI1791
F0.2
sI1792
F0.6
sI1793
F-0.8
sI1794
F0.4
sI1795
F0.6
sI1796
F0.6
sI1797
F0.6
sI1798
F0.2
sI1799
F0.6
sI1800
F0.6
sI1801
F0.8
sI1802
F0.8
sI1803
F0.6
sI1804
F0.6
sI1805
F0.2
sI1806
F-0.2
sI1807
F0.2
sI1808
F-0.4
sI1809
F0.4
sI1810
F0.2
sI1811
F0.0
sI1812
F0.6
sI1813
F0.4
sI1814
F0.6
sI1815
F0.6
sI1816
F-0.8
sI1817
F0.0
sI1818
F0.6
sI1819
F0.2
sI1820
F0.2
sI1821
F-0.4
sI1822
F0.2
sI1823
F0.2
sI1824
F0.2
sI1825
F0.0
sI1826
F0.0
sI1827
F0.2
sI1828
F0.0
sI1829
F0.2
sI1830
F0.0
sI1831
F0.6
sI1832
F0.2
sI1833
F0.6
sI1834
F0.4
sI1835
F0.2
sI1836
F0.2
sI1837
F0.2
sI1838
F0.2
sI1839
F0.0
sI1840
F0.0
sI1841
F-0.2
sI1842
F-0.2
sI1843
F-0.2
sI1844
F-0.2
sI1845
F0.0
sI1846
F0.0
sI1847
F-0.2
sI1848
F0.0
sI1849
F0.2
sI1850
F0.0
sI1851
F0.0
sI1852
F0.0
sI1853
F-0.2
sI1854
F0.0
sI1855
F0.2
sI1856
F-0.2
sI1857
F0.4
sI1858
F0.0
sI1859
F0.2
sI1860
F0.2
sI1861
F0.0
sI1862
F0.2
sI1863
F0.4
sI1864
F0.6
sI1865
F0.4
sI1866
F0.6
sI1867
F0.4
sI1868
F0.2
sI1869
F0.2
sI1870
F0.4
sI1871
F-0.2
sI1872
F-0.2
sI1873
F0.0
sI1874
F0.0
sI1875
F-0.2
sI1876
F0.4
sI1877
F0.4
sI1878
F0.4
sI1879
F0.2
sI1880
F0.4
sI1881
F0.4
sI1882
F0.8
sI1883
F0.4
sI1884
F0.4
sI1885
F0.6
sI1886
F0.4
sI1887
F0.2
sI1888
F0.4
sI1889
F0.2
sI1890
F0.4
sI1891
F0.4
sI1892
F0.6
sI1893
F0.4
sI1894
F0.2
sI1895
F0.2
sI1896
F0.2
sI1897
F0.2
sI1898
F0.2
sI1899
F0.6
sI1900
F0.2
sI1901
F0.6
sI1902
F-0.2
sI1903
F0.8
sI1904
F0.0
sI1905
F0.4
sI1906
F0.0
sI1907
F-0.6
sI1908
F0.4
sI1909
F0.4
sI1910
F0.0
sI1911
F0.4
sI1912
F0.6
sI1913
F0.6
sI1914
F0.2
sI1915
F0.2
sI1916
F-0.6
sI1917
F0.4
sI1918
F-0.4
sI1919
F-0.4
sI1920
F-0.4
sI1921
F0.0
sI1922
F0.2
sI1923
F-0.6
sI1924
F-1.0
sI1925
F-1.0
sI1926
F0.6
sI1927
F0.2
sI1928
F-0.8
sI1929
F0.4
sI1930
F0.6
sI1931
F-0.8
sI1932
F0.0
sI1933
F-0.2
sI1934
F-0.4
sI1935
F-0.8
sI1936
F0.2
sI1937
F-0.8
sI1938
F0.6
sI1939
F-0.4
sI1940
F-0.4
sI1941
F0.2
sI1942
F0.4
sI1943
F0.2
sI1944
F0.6
sI1945
F-0.4
sI1946
F-0.2
sI1947
F0.6
sI1948
F-0.8
sI1949
F0.2
sI1950
F0.6
sI1951
F-1.0
sI1952
F0.6
sI1953
F-1.0
sI1954
F0.2
sI1955
F0.0
sI1956
F0.2
sI1957
F0.4
sI1958
F0.6
sI1959
F0.6
sI1960
F0.4
sI1961
F0.6
sI1962
F-0.6
sI1963
F0.4
sI1964
F-0.4
sI1965
F0.0
sI1966
F0.2
sI1967
F0.4
sI1968
F-0.2
sI1969
F-0.2
sI1970
F0.0
sI1971
F0.6
sI1972
F0.6
sI1973
F0.6
sI1974
F0.4
sI1975
F0.6
sI1976
F0.4
sI1977
F0.2
sI1978
F0.4
sI1979
F0.2
sI1980
F0.2
sI1981
F0.4
sI1982
F0.4
sI1983
F0.4
sI1984
F0.2
sI1985
F0.2
sI1986
F0.6
sI1987
F0.4
sI1988
F-0.4
sI1989
F0.6
sI1990
F0.2
sI1991
F0.2
sI1992
F0.6
sI1993
F0.0
sI1994
F0.0
sI1995
F-0.2
sI1996
F0.4
sI1997
F-0.2
sI1998
F0.6
sI1999
F0.4
sI2000
F-0.2
sI2001
F0.8
sI2002
F0.4
sI2003
F0.0
sI2004
F0.8
sI2005
F0.0
sI2006
F0.2
sI2007
F0.6
sI2008
F1.0
sI2009
F0.4
sI2010
F0.2
sI2011
F0.4
sI2012
F0.2
sI2013
F0.4
sI2014
F0.4
sI2015
F0.6
sI2016
F-0.2
sI2017
F-0.2
sI2018
F0.2
sI2019
F0.4
sI2020
F-0.2
sI2021
F0.4
sI2022
F0.6
sI2023
F-0.2
sI2024
F0.4
sI2025
F0.4
sI2026
F0.2
sI2027
F0.0
sI2028
F0.0
sI2029
F0.4
sI2030
F0.0
sI2031
F0.4
sI2032
F0.6
sI2033
F0.0
sI2034
F0.4
sI2035
F-0.2
sI2036
F-0.6
sI2037
F0.2
sI2038
F-0.2
sI2039
F0.4
sI2040
F0.2
sI2041
F0.6
sI2042
F1.0
sI2043
F0.8
sI2044
F0.4
sI2045
F0.6
sI2046
F0.6
sI2047
F0.6
sI2048
F0.4
sI2049
F0.0
sI2050
F0.4
sI2051
F0.0
sI2052
F-1.0
sI2053
F0.0
sI2054
F0.0
sI2055
F0.4
sI2056
F0.4
sI2057
F0.4
sI2058
F0.2
sI2059
F0.8
sI2060
F0.8
sI2061
F0.4
sI2062
F0.0
sI2063
F0.0
sI2064
F0.6
sI2065
F0.2
sI2066
F0.4
sI2067
F0.6
sI2068
F0.4
sI2069
F0.2
sI2070
F0.6
sI2071
F0.4
sI2072
F0.4
sI2073
F0.2
sI2074
F0.4
sI2075
F-0.2
sI2076
F0.6
sI2077
F0.2
sI2078
F0.4
sI2079
F0.2
sI2080
F0.0
sI2081
F0.0
sI2082
F0.0
sI2083
F-0.2
sI2084
F-0.2
sI2085
F-0.2
sI2086
F0.2
sI2087
F0.4
sI2088
F0.2
sI2089
F0.2
sI2090
F0.0
sI2091
F1.0
sI2092
F0.4
sI2093
F0.0
sI2094
F0.6
sI2095
F0.8
sI2096
F0.6
sI2097
F0.2
sI2098
F0.6
sI2099
F0.0
sI2100
F0.2
sI2101
F0.4
sI2102
F0.4
sI2103
F1.0
sI2104
F0.2
sI2105
F0.8
sI2106
F-1.0
sI2107
F-0.6
sI2108
F-0.2
sI2109
F0.2
sI2110
F1.0
sI2111
F1.0
sI2112
F-0.6
sI2113
F1.0
sI2114
F1.0
sI2115
F-0.2
sI2116
F-0.6
sI2117
F0.6
sI2118
F0.4
sI2119
F0.0
sI2120
F0.8
sI2121
F0.8
sI2122
F0.4
sI2123
F0.4
sI2124
F1.0
sI2125
F0.2
sI2126
F0.6
sI2127
F1.0
sI2128
F0.6
sI2129
F0.2
sI2130
F0.2
sI2131
F0.4
sI2132
F1.0
sI2133
F1.0
sI2134
F0.6
sI2135
F0.4
sI2136
F1.0
sI2137
F0.4
sI2138
F0.8
sI2139
F0.8
sI2140
F0.8
sI2141
F0.6
sI2142
F0.4
sI2143
F0.8
sI2144
F0.4
sI2145
F0.0
sI2146
F0.8
sI2147
F1.0
sI2148
F0.6
sI2149
F1.0
sI2150
F1.0
sI2151
F0.6
sI2152
F1.0
sI2153
F0.4
sI2154
F0.8
sI2155
F0.8
sI2156
F0.6
sI2157
F0.4
sI2158
F1.0
sI2159
F0.8
sI2160
F1.0
sI2161
F1.0
sI2162
F0.8
sI2163
F0.8
sI2164
F1.0
sI2165
F0.6
sI2166
F1.0
sI2167
F1.0
sI2168
F1.0
sI2169
F1.0
sI2170
F1.0
sI2171
F0.8
sI2172
F0.2
sI2173
F1.0
sI2174
F-0.4
sI2175
F-0.4
sI2176
F-1.0
sI2177
F-0.8
sI2178
F0.4
sI2179
F-0.8
sI2180
F1.0
sI2181
F0.6
sI2182
F0.4
sI2183
F0.8
sI2184
F0.2
sI2185
F0.8
sI2186
F1.0
sI2187
F1.0
sI2188
F0.8
sI2189
F0.8
sI2190
F0.8
sI2191
F0.8
sI2192
F1.0
sI2193
F1.0
sI2194
F0.6
sI2195
F0.6
sI2196
F0.2
sI2197
F0.0
sI2198
F0.8
sI2199
F0.0
sI2200
F0.8
sI2201
F-0.3333333333333333
sI2202
F1.0
sI2203
F1.0
sI2204
F1.0
sI2205
F1.0
sI2206
F-1.0
sI2207
F-1.0
sI2208
F-1.0
sI2209
F0.2
sI2210
F1.0
sI2211
F0.8
sI2212
F1.0
sI2213
F0.2
sI2214
F1.0
sI2215
F0.6
sI2216
F0.42857142857142855
sI2217
F1.0
sI2218
F-0.42857142857142855
sI2219
F0.8571428571428571
sI2220
F0.8571428571428571
sI2221
F-0.3333333333333333
sI2222
F0.6666666666666666
sI2223
F-0.5
sI2224
F1.0
sI2225
F-1.0
sI2226
F0.8571428571428571
sI2227
F0.8571428571428571
sI2228
F-0.8571428571428571
sI2229
F-1.0
sI2230
F-0.8571428571428571
sI2231
F0.4
sI2232
F-1.0
sI2233
F0.6
sI2234
F0.4
sI2235
F-1.0
sI2236
F-0.6666666666666666
sI2237
F-1.0
sI2238
F1.0
sI2239
F0.8333333333333334
sI2240
F0.5
sI2241
F-1.0
sI2242
F0.8571428571428571
sI2243
F0.7142857142857143
sI2244
F0.8571428571428571
sI2245
F0.7142857142857143
sI2246
F0.6666666666666666
sI2247
F0.6666666666666666
sI2248
F0.8333333333333334
sI2249
F1.0
sI2250
F1.0
sI2251
F0.6666666666666666
sI2252
F0.0
sI2253
F0.16666666666666666
sI2254
F-1.0
sI2255
F0.6666666666666666
sI2256
F-0.3333333333333333
sI2257
F-1.0
sI2258
F-0.3333333333333333
sI2259
F-1.0
sI2260
F-0.8333333333333334
sI2261
F-0.42857142857142855
sI2262
F0.5714285714285714
sI2263
F-1.0
sI2264
F-1.0
sI2265
F-1.0
sI2266
F0.8333333333333334
sI2267
F0.8333333333333334
sI2268
F0.5
sI2269
F0.8333333333333334
sI2270
F0.3333333333333333
sI2271
F0.4
sI2272
F0.2
sI2273
F0.0
sI2274
F0.6
sI2275
F0.2
sI2276
F1.0
sI2277
F0.8
sI2278
F0.6
sI2279
F1.0
sI2280
F1.0
sI2281
F1.0
sI2282
F0.8333333333333334
sI2283
F0.0
sI2284
F0.8333333333333334
sI2285
F0.5
sI2286
F1.0
sI2287
F1.0
sI2288
F1.0
sI2289
F1.0
sI2290
F1.0
sI2291
F0.2857142857142857
sI2292
F0.42857142857142855
sI2293
F0.42857142857142855
sI2294
F0.7142857142857143
sI2295
F0.42857142857142855
sI2296
F0.7142857142857143
sI2297
F0.7142857142857143
sI2298
F1.0
sI2299
F1.0
sI2300
F1.0
sI2301
F1.0
sI2302
F1.0
sI2303
F1.0
sI2304
F1.0
sI2305
F1.0
sI2306
F0.8
sI2307
F0.2
sI2308
F1.0
sI2309
F0.8
sI2310
F0.6
sI2311
F1.0
sI2312
F1.0
sI2313
F-1.0
sI2314
F-1.0
sI2315
F0.0
sI2316
F0.8
sI2317
F0.8
sI2318
F0.4
sI2319
F0.4
sI2320
F0.4
sI2321
F0.6
sI2322
F0.6
sI2323
F-0.6
sI2324
F1.0
sI2325
F-0.8
sI2326
F0.6
sI2327
F0.8
sI2328
F-0.2
sI2329
F1.0
sI2330
F0.6
sI2331
F0.4
sI2332
F1.0
sI2333
F0.6
sI2334
F0.8
sI2335
F0.4
sI2336
F0.2
sI2337
F-1.0
sI2338
F-1.0
sI2339
F0.8
sI2340
F0.4
sI2341
F-0.4
sI2342
F0.8
sI2343
F0.4
sI2344
F0.8
sI2345
F-0.8
sI2346
F0.2
sI2347
F1.0
sI2348
F-0.6
sI2349
F-1.0
sI2350
F1.0
sI2351
F0.8
sI2352
F0.6
sI2353
F0.8
sI2354
F0.8
sI2355
F1.0
sI2356
F0.8
sI2357
F0.8
sI2358
F0.4
sI2359
F0.8
sI2360
F0.8
sI2361
F-0.6
sI2362
F0.8
sI2363
F0.8
sI2364
F0.4
sI2365
F0.8
sI2366
F0.4
sI2367
F0.2
sI2368
F0.2
sI2369
F-0.4
sI2370
F0.4
sI2371
F0.8
sI2372
F0.2
sI2373
F0.4
sI2374
F0.6
sI2375
F0.4
sI2376
F0.6
sI2377
F-0.2
sI2378
F1.0
sI2379
F1.0
sI2380
F0.6
sI2381
F1.0
sI2382
F1.0
sI2383
F1.0
sI2384
F1.0
sI2385
F1.0
sI2386
F0.8
sI2387
F1.0
sI2388
F0.8
sI2389
F0.8
sI2390
F0.8
sI2391
F0.8
sI2392
F0.8
sI2393
F0.8
sI2394
F0.4
sI2395
F0.6
sI2396
F0.4
sI2397
F1.0
sI2398
F-0.8
sI2399
F1.0
sI2400
F0.8
sI2401
F0.8
sI2402
F1.0
sI2403
F0.8
sI2404
F0.8
sI2405
F0.6
sI2406
F1.0
sI2407
F0.2
sI2408
F0.6
sI2409
F0.6
sI2410
F0.8
sI2411
F0.8
sI2412
F0.8
sI2413
F0.8
sI2414
F0.8
sI2415
F0.8
sI2416
F-0.8
sI2417
F-0.2
sI2418
F-0.8
sI2419
F0.8
sI2420
F0.6
sI2421
F0.2
sI2422
F-0.4
sI2423
F-0.8
sI2424
F0.6
sI2425
F0.4
sI2426
F1.0
sI2427
F-0.4
sI2428
F-1.0
sI2429
F-0.4
sI2430
F0.0
sI2431
F0.8
sI2432
F-0.6
sI2433
F-1.0
sI2434
F1.0
sI2435
F-0.6
sI2436
F-0.5
sI2437
F0.0
sI2438
F-0.5
sI2439
F0.5
sI2440
F0.5
sI2441
F0.4
sI2442
F0.4
sI2443
F-0.6
sI2444
F-0.2
sI2445
F-0.8
sI2446
F0.0
sI2447
F-0.2
sI2448
F-0.2
sI2449
F0.4
sI2450
F-0.8
sI2451
F0.6
sI2452
F1.0
sI2453
F-0.4
sI2454
F-0.6
sI2455
F0.4
sI2456
F0.8
sI2457
F0.6
sI2458
F0.6
sI2459
F0.8
sI2460
F0.6
sI2461
F1.0
sI2462
F0.75
sI2463
F0.5
sI2464
F0.5
sI2465
F0.0
sI2466
F1.0
sI2467
F1.0
sI2468
F1.0
sI2469
F0.5
sI2470
F0.75
sI2471
F0.75
sI2472
F0.25
sI2473
F0.75
sI2474
F0.0
sI2475
F0.25
sI2476
F0.4
sI2477
F-0.6
sI2478
F-0.4
sI2479
F0.2
sI2480
F-0.8
sI2481
F-0.6
sI2482
F0.8
sI2483
F1.0
sI2484
F-0.6
sI2485
F-0.6
sI2486
F0.2
sI2487
F0.2
sI2488
F0.2
sI2489
F0.2
sI2490
F0.2
sI2491
F0.25
sI2492
F0.75
sI2493
F0.75
sI2494
F0.75
sI2495
F0.5
sI2496
F0.4
sI2497
F0.8
sI2498
F-0.6
sI2499
F0.8
sI2500
F0.8
sI2501
F1.0
sI2502
F1.0
sI2503
F0.75
sI2504
F0.75
sI2505
F0.75
sI2506
F0.75
sI2507
F0.75
sI2508
F0.25
sI2509
F0.75
sI2510
F0.75
sI2511
F0.6666666666666666
sI2512
F0.6666666666666666
sI2513
F0.6666666666666666
sI2514
F0.6666666666666666
sI2515
F0.6666666666666666
sI2516
F0.8
sI2517
F0.8
sI2518
F0.4
sI2519
F0.8
sI2520
F0.4
sI2521
F1.0
sI2522
F0.25
sI2523
F0.0
sI2524
F0.25
sI2525
F0.5
sI2526
F0.8
sI2527
F0.8
sI2528
F0.8
sI2529
F0.8
sI2530
F0.8
sI2531
F-1.0
sI2532
F-0.75
sI2533
F-1.0
sI2534
F-0.75
sI2535
F-1.0
sI2536
F0.25
sI2537
F-1.0
sI2538
F-1.0
sI2539
F0.25
sI2540
F-1.0
sI2541
F-0.6
sI2542
F-1.0
sI2543
F-1.0
sI2544
F-0.6
sI2545
F-1.0
sI2546
F0.4
sI2547
F0.6
sI2548
F0.6
sI2549
F0.8
sI2550
F0.8
sI2551
F0.6
sI2552
F0.2
sI2553
F0.8
sI2554
F0.8
sI2555
F-0.6
sI2556
F-0.6
sI2557
F-0.6
sI2558
F0.4
sI2559
F-0.6
sI2560
F0.4
sI2561
F0.4
sI2562
F0.0
sI2563
F-1.0
sI2564
F-0.8
sI2565
F0.8
sI2566
F0.75
sI2567
F0.75
sI2568
F0.75
sI2569
F0.5
sI2570
F0.5
sI2571
F0.75
sI2572
F0.75
sI2573
F0.0
sI2574
F0.75
sI2575
F0.75
sI2576
F0.75
sI2577
F0.75
sI2578
F0.75
sI2579
F0.5
sI2580
F0.75
sI2581
F0.0
sI2582
F0.8
sI2583
F0.2
sI2584
F0.8
sI2585
F0.8
sI2586
F0.8
sI2587
F0.8
sI2588
F0.8
sI2589
F0.8
sI2590
F0.8
sI2591
F0.8
sI2592
F0.8
sI2593
F0.8
sI2594
F0.8
sI2595
F0.8
s(dp2597
S'iraqi media says isis militants have contracted ebola'
p2598
I2324
sS'saudi women may have to cover up sexy eyes'
p2599
I2496
sS'nujaifi condemns daash crime in saqlawiyah and alsiger areas of anbar.'
p2600
I2361
sS'hbo streaming service could launch in april for 15 per month, work on apple tv'
p2601
I2144
sS'indian civil servant sacked after 24-year sickie'
p2602
I2383
sS'raven-symone files molestation charges against bill cosby report is totally fake media fooled'
p2603
I2485
sS"no, there aren't any ebola cases in iraq"
p2604
I2349
sS'egyptian president makes surprising suggestion to move the location of a future palestinian state'
p2605
I2118
sS'hermaphroditic cat awaits a gender reassignment surgery to become a boy'
p2606
I2399
sS'barbaric hostage murder condemned'
p2607
I2287
sS"apple's 12.9-inch ipad pro has been delayed"
p2608
I2133
sS'outrage as children imitate dog fighting'
p2609
I2215
sS'christian bale is steve jobs'
p2610
I2220
sS'horror: isis fighters have reportedly contracted ebola'
p2611
I2322
sS'hospital officials: kansas city patient not being treated for ebola'
p2612
I2256
sS'weaponized ebola? isis militants said to contract deadly virus'
p2613
I2352
sS'christian bale in talks to play steve jobs in upcoming sorkin film'
p2614
I2216
sS"egypt's president denies offering land to palestinians"
p2615
I2106
sS'revealed: navy seals hiked six miles and got within 100 yards of yemen compound where executed us hostage was being held - before a dog bark alerted al-qaeda captors'
p2616
I2285
sS"has kim's sister taken over north korea? dictator fails to show for key communist event but does send a nice flower basket instead"
p2617
I2367
sS'luke somers, american hostage, is killed during rescue attempt in yemen'
p2618
I2294
sS'ottawa gunman identified as michael zehaf-bibeau'
p2619
I2464
sS'nigerians doubtful of girls release after boko haram truce breached'
p2620
I2444
sS'ibm is about to get hit with a massive reorg and layoffs'
p2621
I2312
sS'nigeria and boko haram agree ceasefire and girls release'
p2622
I2426
sS'hermaphroditic cat is getting gender assignment surgery'
p2623
I2403
sS"five-year-old boy gets a bill for missing school friend's birthday party"
p2624
I2186
sS'officials refute iraqi media reports that isis members have contracted ebola in mosul'
p2625
I2335
sS'stop sharing those photos of fancy international school lunches'
p2626
I2315
sS"torpoint: five-year-old billed for missing friend's birthday party in england"
p2627
I2185
sS'kc hospital: patient does not have symptom profile of ebola'
p2628
I2259
sS'british-born journalist and south african aid worker killed in hostage rescue attempt'
p2629
I2290
sS'michael zehaf-bibeau, slain ottawa shooter, had criminal record in quebec, b.c.'
p2630
I2461
sS'isis leader abu bakr al-baghdadi wounded in airstrikes his aide killed'
p2631
I2077
sS'cesar millan is not dead: dog whisperer death hoax circulates'
p2632
I2206
sS'more than 200 kidnapped nigerian girls to be released after deal reached with boko haram'
p2633
I2419
sS'school children in johannesburg imitate dog fighting during recess'
p2634
I2213
sS"no, nobody's discovered a new eyewitness account of jesus miracles"
p2635
I2398
sS'isis leader abu bakr al-baghdadi wounded in airstrike, iraq officials say'
p2636
I2076
sS'10 of owners of iphone 5 up will buy an apple watch, predicts morgan stanley'
p2637
I2145
sS"boko haram denies ceasefire claim by nigeria's government"
p2638
I2428
sS'grieving afghan mother takes bloody revenge by killing 25 taliban militants during seven hour battle after they gunned down her son'
p2639
I2410
sS'married tv actor wakes up to find his testicles have been stolen after kissing young woman in sauna'
p2640
I2550
sS"nigeria's missing girls to be released by boko haram, government aide claims"
p2641
I2446
sS"kim yo jong, kim jong-un's sister, takes control of north korea while brother gets treatment?"
p2642
I2374
sS'christian bale in talks to play steve jobs for sony, danny boyle'
p2643
I2233
sS'nigeria claims deal with boko haram on ceasefire, kidnapped girls'
p2644
I2420
sS'hbo in talks with apple to be launch partner for coming web service hbo now'
p2645
I2139
sS'islamic state leader abu bakr al-baghdadi: wounded, dead or missed entirely by u.s. airstrikes?'
p2646
I2086
sS'sorry, everyone: durex is unfortunately not making pumpkin spice condoms'
p2647
I2531
sS'fate of is leader abu bakr al-baghdadi unknown after airstrikes target him'
p2648
I2083
sS'iraqi and kurdish media isis fighters have contracted ebola'
p2649
I2329
sS"matt taibbi leaves omidyar's first look media updated"
p2650
I2393
sS'christian bale exits steve jobs movie exclusive'
p2651
I2230
sS'boko haram could release kidnapped girls, nigerian officials say'
p2652
I2430
sS'samsung is reportedly making a secret new chip in the apple watch'
p2653
I2488
sS'isis kills 300 iraqi soldiers with chlorine gas: shia mp'
p2654
I2356
sS'man cut off manhood and threw it in bin after girlfriend dumped him over small penis'
p2655
I2509
sS'vice media chief said to pay 300,000 for dinner for 30'
p2656
I2515
sS'isis chlorine attack on security forces confirmed iraq officials'
p2657
I2354
sS'apple delaying production on larger-screened ipad pro until september'
p2658
I2134
sS'top cop investigating charlie hebdo attacks kills himself hours after french massacre'
p2659
I2279
sS"afghan mother reza gul takes up slain son's gun to kill taliban attackers"
p2660
I2413
sS'has ebola infected isis militants in mosul?'
p2661
I2336
sS'nigeria claims boko haram will release the kidnapped schoolgirls'
p2662
I2421
sS'christian bale in talks to play steve jobs exclusive'
p2663
I2231
sS'libya: missing libya planes spark security concerns'
p2664
I2087
sS'student interviews his dad for vlog, fails spectacularly'
p2665
I2566
sS'christmas is cancelled: pumpkin spice condoms are a goddamn hoax'
p2666
I2533
sS"son's asinine questions inspire priceless dad-rage"
p2667
I2565
sS'tiger woods ped, pga tour suspension allegations retracted by dan olsen'
p2668
I2555
sS'israeli politicians praise sisi plan to give palestinians land for a state in sinai'
p2669
I2117
sS'a man says comcast called his boss and got him fired after he complained about its service'
p2670
I2248
sS'cbs news names canadian parliament shooting suspect'
p2671
I2467
sS'who: reports of suspected ebola cases in iraq untrue'
p2672
I2348
sS'terrorism fears rise amid reports of stolen jetliners'
p2673
I2100
sS'evil aunt hacks off toddlers penis'
p2674
I2164
sS'who probing whether isis fighters got ebola'
p2675
I2326
sS'despite ceasefire announcement, new boko haram attacks reported'
p2676
I2432
sS'claim: comcast got complaining customer fired from his job'
p2677
I2252
sS'government employee fired after skipping work for 24 years'
p2678
I2378
sS'indian worker sacked after going on leave for 24 years'
p2679
I2386
sS'apple could surprise us with 12-inch macbook air next week'
p2680
I2128
sS'ibm denies layoff rumors'
p2681
I2314
sS'american journalist killed in failed yemen rescue attempt'
p2682
I2296
sS'man chops off his own penis, throws it in the trash after getting dumped for bad bedroom skills'
p2683
I2511
sS"christian bale passes on role of steve jobs, actor reportedly felt he wasn't right for part"
p2684
I2218
sS'no, pumpkin spice condoms are not a real thing'
p2685
I2532
sS'at elon, first-year has not replaced freshman, university says'
p2686
I2265
sS'canada probes michael zehaf-bibeau as possible suspect in ottawa shooting - source'
p2687
I2463
sS'12.9-inch ipad pro production reportedly pushed back to september'
p2688
I2131
sS'apple plans relaunched beats streaming music service for wwdc, skipping march event apple tv still coming'
p2689
I2125
sS'matt taibbi on leave of absence from first look media'
p2690
I2396
sS'biological warfare on the horizon? isis soldiers may be infected with ebola'
p2691
I2346
sS'indian bride marries wedding guest after husband has epileptic seizure during ceremony'
p2692
I2193
sS"woman cuts off husband's penis twice after catching him cheating"
p2693
I2585
sS'jetliners stolen from libya could be used to attack u.s. on 911'
p2694
I2092
sS'isis admits leader abu bakr al-baghdadi injured in us air strike'
p2695
I2080
sS'iraq: us to probe isis chlorine attack on iraqi security personnel'
p2696
I2358
sS'apple might finally unveil the retina macbook air of your dreams next week'
p2697
I2126
sS'russian tv actor wakes up to find his testicles stolen'
p2698
I2548
sS'axl rose dead 2014 : guns n roses frontman killed by internet death hoax'
p2699
I2172
sS"what was fake on the internet this week: obama's peace prize, pumpkin-spice condoms and insane winter snow"
p2700
I2544
sS"graphic content: girl sneers at man's tiny penis so he chops it off and bins it"
p2701
I2508
sS'saudi women with attractive eyes may be forced to cover even them up, if resolution is passed'
p2702
I2495
sS'charlie hebdo investigator took own life hours after attack: report'
p2703
I2277
sS"jilted wife chopped off husband's penis twice with scissors after catching him cheating"
p2704
I2590
sS'samsung supposedly wins orders to produce apple watch components'
p2705
I2490
sS"vladimir putin's motorcade looks like a massive knob"
p2706
I2476
sS'boko haram cease-fire: abducted nigerian schoolgirls to be released, officials say'
p2707
I2439
sS'apple watch launch expected in march, retail training set for mid-february'
p2708
I2153
sS'american hostage killed in rescue attempt in yemen - senior official'
p2709
I2289
sS'isis fighters have contracted ebola: world health organisation investigating reports militants showed up at iraqi hospital with lethal disease'
p2710
I2332
sS'durex is not making pumpkin spice condoms after all: a hoax debunked'
p2711
I2542
sS'isis militants in mosul have contracted ebola, iraqi media sources claim'
p2712
I2339
sS'man who skipped work for 24 years is finally fired'
p2713
I2385
sS"bugatti veyron vandalized with penis graffiti? viral photo isn't what it seems"
p2714
I2199
sS'bloomberg: apple pushes back 12.9-inch ipad pro production to september'
p2715
I2130
sS'continuing violence puts boko haram ceasefire in jeopardy'
p2716
I2417
sS'sexually frustrated female owl killed male because his penis was too small'
p2717
I2530
sS'nigeria says ceasefire agreed with boko haram'
p2718
I2425
sS'ottawa shooting: nathan cirillo named as dead soldier while suspect identified as michael zehaf-bibeau'
p2719
I2466
sS'tempting eyes ban: saudi women with pretty eyes made to cover them up'
p2720
I2497
sS'11 aircraft are missing from terrorist-held tripoli airport ahead of 911 anniversary'
p2721
I2091
sS'pictures: shocking pictures comparing us school lunches to other countries goes viral'
p2722
I2316
sS'hand grenade found at beckenham lane property in shortlands'
p2723
I2275
sS"christian bale won't play steve jobs after all"
p2724
I2232
sS'isis militants have contracted ebola: iraqi, kurdish media reports'
p2725
I2343
sS"did kim yo-jong take kim jong un's role? north korea ill health rumors are fabricated"
p2726
I2369
sS'the famous dog whisperer cesar millan died of a heart attack this morning.'
p2727
I2210
sS"penis drawn on bugatti veyron could be world's most expensive car vandalism"
p2728
I2203
sS'durex denies rumors of a pumpkin spice flavored condom'
p2729
I2541
sS'fence-jumper ran through much of main floor of white house: report'
p2730
I2570
sS'luke somers killed: barack obama condemns the barbaric murder of british-born photojournalist by al-qaeda'
p2731
I2292
sS'missing libyan jetliners raise fears of suicide airliner attacks on 911'
p2732
I2094
sS'sisi denies claims over providing palestinians with sinai lands'
p2733
I2112
sS'fence-jumper made it farther in white house than secret service let on'
p2734
I2571
sS'isis fighters have contracted ebola'
p2735
I2347
sS'police officer in charlie hebdo investigation shot himself dead hours after the attack'
p2736
I2281
sS'pga tour pro claims tiger woods is currently suspended for peds, compares him to lance armstrong'
p2737
I2561
sS'sources: guns n roses frontman axl rose found dead in west hollywood home at age 52'
p2738
I2173
sS'white house fence-jumper made it far deeper into building than previously known'
p2739
I2580
sS"wife chopped her husband's penis off after she discovered he had cheated on her then cut it off again after surgeons managed to reattach it in china"
p2740
I2586
sS'boko haram will release abducted schoolgirls and agree to ceasefire claims nigerian official'
p2741
I2440
sS'apple watch launch expected in late march'
p2742
I2155
sS'christian bale to play steve jobs in upcoming biopic'
p2743
I2239
sS'mittens the intersex cat to get gender assignment'
p2744
I2406
sS'durex shuts down rumors of a pumpkin spice condom'
p2745
I2535
sS'nigeria, boko haram reach ceasefire deal, kidnapped girls to go free, official says'
p2746
I2431
sS'insurgents killed in nigeria despite alleged truce with boko haram'
p2747
I2448
sS"woman cuts off husband's penis twice, then throws it out the window"
p2748
I2593
sS'apple watch reportedly set to ship in the u.s. by march'
p2749
I2157
sS'christian bale drops out of steve jobs biopic'
p2750
I2228
sS"the news of cesar millan's death is false"
p2751
I2208
sS'absent from duty for 25 years, cpwd official dismissed'
p2752
I2387
sS'a bunch of cool health features were cut from the apple watch at the last minute'
p2753
I2149
sS'ebola outbreak 2015 update: isis fighters may have contracted deadly virus'
p2754
I2340
sS'man chops off his penis after his girlfriend breaks up with him'
p2755
I2506
sS"hoax busted: report on popular dog whisperer cesar millan's death is false"
p2756
I2207
sS'11 tripoli planes still missing, sparks 911 concerns'
p2757
I2096
sS'apple to delay production of larger ipads'
p2758
I2132
sS'you may be able to make appointments at the apple store to try on the apple watch when it launches'
p2759
I2159
sS'axl rose found dead of shtty hoax website at age 52'
p2760
I2178
sS'posted in: celebrity news posted: december 3, 2014 axl rose dead? of course not tiresome internet death hoax plague hits guns n roses frontman'
p2761
I2177
sS'al-qaeda kills hostages as us tries dramatic rescue bid'
p2762
I2286
sS'secret service lied about white house fence jumper'
p2763
I2573
sS'penis graffiti drawn on 1.5million bugatti veyron'
p2764
I2205
sS'officials: fence jumper made it into east room of white house'
p2765
I2569
sS'amazon reportedly planning an ad-supported video service that will be cheaper than netflix'
p2766
I2122
sS'american, south african hostages die in rescue attempt in yemen'
p2767
I2288
sS'penis spray-painted on a 2.5 million car was just for a prank video'
p2768
I2197
sS'hbo now coming to apple tv next month'
p2769
I2136
sS'nigeria says boko haram cease-fire may lead to release of kidnapped girls'
p2770
I2424
sS'web portal publishes death of dog whisperer'
p2771
I2209
sS"kim jong-un's sister takes control in north korea"
p2772
I2365
sS'amazon to launch ad-supported streaming service'
p2773
I2124
sS'ibm plans massive layoffs of up to 110,000 workers: report'
p2774
I2310
sS'apple to take reservations for trying on apple watch, considered platinum model'
p2775
I2160
sS"don't forget to tip...especially if you spend 300,000"
p2776
I2525
sS'the cosby show star raven symone joins long list of women accusing bill cosby of rape'
p2777
I2483
sS"boy, 5, billed with no show fee for missing friend's birthday party"
p2778
I2184
sS'boko haram claims to have german hostage, denies ceasefire'
p2779
I2436
sS'luke somers killed in failed rescue attempt in yemen'
p2780
I2295
sS'the man who says comcast got him fired has filed a lawsuit'
p2781
I2245
sS'isis air strikes: abu bakr al-baghdadi critically wounded in air strikes near mosul'
p2782
I2082
sS"christian bale in talks to play steve jobs in danny boyle's biopic"
p2783
I2240
sS"cruel aunt cuts her three-year-old nephew's penis off because he burst in on her on the loo and asked to use her phone"
p2784
I2165
sS'google grows with 1.6 billion in california office deals'
p2785
I2272
sS'despite no ebola case in kansas city, the rumor goes viral'
p2786
I2257
sS'isis leader abu bakr al-baghdadi injured in u.s. air strikes, iraqi officials claim'
p2787
I2074
sS"wife chops off cheating husband's penis, twice"
p2788
I2591
sS'hermaphroditic cat to get gender assignment surgery'
p2789
I2402
sS'boko haram leader denies ceasefire deal, says 200 abducted girls married off'
p2790
I2433
sS'who is michael zehaf-bibeau? ottawa shooter suspect identified by canadian officials'
p2791
I2465
sS'islamic state leader abu bakr al-baghdadi wounded in airstrike: claims'
p2792
I2084
sS'the groom was sick, so the bride married a guest at her wedding in a fit of rage'
p2793
I2194
sS'doctors confirmed the first case of death from ingesting gmos'
p2794
I2298
sS'vandals spray a rude drawing on 2.4m bugatti veyron but fortunately for the owner it is all a prank'
p2795
I2201
sS'hbo reportedly in talks to debut 15month standalone streaming service on apple tv next month'
p2796
I2135
sS'someone spraypainted a penis on a 1.5m bugatti veyron and it went very viral'
p2797
I2200
sS"sadly, pumpkin spice condoms aren't a thing after all"
p2798
I2538
sS"sushi lover's entire body left riddled with worms after eating contaminated sashimi"
p2799
I2492
sS'party invoice: boy sent bill for birthday no-show'
p2800
I2183
sS'nigeria: hopes for return of kidnapped schoolgirls rise after ceasefire reported'
p2801
I2451
sS'children in dog fighting horror'
p2802
I2214
sS'hermaphrodite cat named mittens to get gender reassignment'
p2803
I2400
sS"china: wife chops off cheating husband's penis twice with scissors and throws it out of window"
p2804
I2588
sS"kim jong-un's sister reportedly running n. korea"
p2805
I2372
sS'boko haram ceasefire ignored as violence flares in borno state'
p2806
I2435
sS'comcast turns complaints back on customer, gets his employer to fire him'
p2807
I2250
sS'isis behead their own fighters for spying and embezzlement in syria'
p2808
I2321
sS"jilted wife chops off two-timing hubby's manhood twice"
p2809
I2592
sS'chugging eggnog sends utah man to hospital'
p2810
I2389
sS'the apple watch will debut by late march report'
p2811
I2154
sS'ski resort opens with snow stored from last season'
p2812
I2171
sS'white house fence jumper actually made it pretty far inside'
p2813
I2572
sS'hermaphroditic cat to undergo gender reassignment surgery'
p2814
I2401
sS'man chops off own penis, throws it in a dustbin after poor show in bed'
p2815
I2514
sS'vandal paints penis on 1.5million bugatti veyron'
p2816
I2198
sS'university drops term freshman, replaces it with first-year'
p2817
I2267
sS"egypt's sisi offered abbas creation of palestinian state in sinai peninsula"
p2818
I2113
sS'piper jaffray pegs stainless steel apple watch price at 499, edition at 4,999'
p2819
I2546
sS'pga spokesman and tiger woods agent deny drug suspension allegations'
p2820
I2559
sS'hospital: man not being treated for ebola in kansas city'
p2821
I2261
sS'after finding out mid-wedding that her groom was unwell, this bride married a wedding guest instead'
p2822
I2190
sS"mirfield man's tears of joy after lost voicemail of wife retrieved"
p2823
I2300
sS'condition of abu bakr al-baghdadi, islamic state leader, in doubt after airstrike'
p2824
I2075
sS'white house fence jumper made it farther into building than reported'
p2825
I2575
sS'samsung reportedly grabs processor orders for apple watch'
p2826
I2489
sS'who: isis does not have ebola but contingency plan being developed for iraq'
p2827
I2337
sS'man in china recovering in hospital after wife chopped off his penis'
p2828
I2595
sS'boko haram agrees to ceasefire, release of school girls'
p2829
I2434
sS"aunt cuts off 3-year-old's penis because he walked in while she was on the toilet"
p2830
I2162
sS"putin's motorcade looks suspiciously like a massive"
p2831
I2475
sS'apple targeting march for apple watch launch, retail training begins next month'
p2832
I2156
sS'graphic photo: oliver ilic uses razor blade to slice off own manhood after girlfriend broke up with him'
p2833
I2512
sS'u.s. hostage luke somers killed during yemen rescue bid'
p2834
I2293
sS'boko haram denies cease-fire, leader says he married off kidnapped girls'
p2835
I2418
sS'isis cracks down on five confirmed ebola cases among fighters: official'
p2836
I2327
sS"wife cuts off husband's penis twice after catching him cheating"
p2837
I2594
sS'customer: i was fired for comcast complaint'
p2838
I2246
sS'ibm denies plans to cut 26 of workforce'
p2839
I2313
sS"i am lost for words, 5-year-old boy billed for missing friend's birthday party"
p2840
I2181
sS'missing planes'
p2841
I2099
sS'ottawa gunman identified as 32-year-old michael zehaf-bibeau'
p2842
I2460
sS'is durex planning to release a pumpkin spice condom?'
p2843
I2536
sS'nigeria says it struck a cease-fire with boko haram, but are they talking to the right guy?'
p2844
I2437
sS"enraged spouse chops off unfaithful husband's manhood twice"
p2845
I2587
sS"woman faces jail time after slicing off 3-year-old nephew's penis"
p2846
I2170
sS'apple cut watch health features due to erratic sensors'
p2847
I2151
sS'raven-symone blasts fake report alleging she was abused by bill cosby: keep me out of this'
p2848
I2484
sS'vice ceo smith spent 300,000 on vegas feast after blackjack'
p2849
I2519
sS'alleged ottawa gunman: what we know so far about michael zehaf-bibeau'
p2850
I2458
sS'utah man hospitalized after eggnog-chugging competition'
p2851
I2391
sS'angry indian bride marries wedding guest'
p2852
I2189
sS'cpwd official sacked for absence from duty for 25 years'
p2853
I2380
sS'nearly a dozen commercial airliners missing ahead of 911 anniversary after islamists overrun libyan airport'
p2854
I2101
sS'shock claim: pga golfer says tiger woods is suspended for failed drug test'
p2855
I2562
sS"afghan woman kills 25 taliban rebels to avenge her son's murder"
p2856
I2408
sS'hbo in talks with apple to be launch partner for coming web service hbo now: exclusive'
p2857
I2141
sS'boko haram denies it has agreed ceasefire'
p2858
I2450
sS'cheeky vandals paint giant penis on bonnet of 1.5 million bugatti veyron sportscar'
p2859
I2204
sS'apple watch to ship in march'
p2860
I2158
sS"afghan woman picks up dead son's gun, helps kill 25 taliban militants to save village"
p2861
I2414
sS'kc man does not have ebola'
p2862
I2263
sS'has kim yo-jong taken over for kim jong un? sister assumes north korea state duties while brother undergoes medical treatment'
p2863
I2370
sS'apple tested and cut more advanced fitness sensors from the apple watch'
p2864
I2148
sS'boko haram denies truce, says kidnapped girls have been married off'
p2865
I2445
sS"wfb's bill gertz: obama administration trying to play down missing libyan airliners"
p2866
I2090
sS'apple scrapped advanced apple watch health monitoring features due to reliability issues'
p2867
I2147
sS'hero soldier nathan cirillo killed by convicted criminal michael zehaf-bibeau'
p2868
I2470
sS'hbo reportedly in talks with apple for launch of new unbundled streaming service'
p2869
I2140
sS'amazon plans ad-supported video streaming service - ny post'
p2870
I2120
sS"vice media's ceo blew 300,000 on dinner, and a vegas casino boss blabbed about it"
p2871
I2517
sS"sadly vladimir putin hasn't been driving round in a motorcade shaped like a penis"
p2872
I2477
sS'christian bale quits steve jobs movie'
p2873
I2237
sS'fence jumper reportedly made it much further into white house than secret service said'
p2874
I2581
sS'the greater gaza plan: is israel trying to force palestinians into sinai?'
p2875
I2108
sS"afghan family kills 25 in revenge for son's death"
p2876
I2409
sS'who investigates media reports isis fighters contracted ebola'
p2877
I2333
sS"ex co-star raven symon blasts rape rumor ... that's disgusting"
p2878
I2486
sS'fears islamic state could launch ebola attack on britain after fighters contract virus'
p2879
I2334
sS'man severed penis that failed to impress girls'
p2880
I2502
sS'white house fence-jumper overpowered secret service officer, ran through much of main floor'
p2881
I2576
sS'hope fades for girls release after boko haram truce breached'
p2882
I2443
sS'christian bale will play steve jobs'
p2883
I2222
sS'durex on rumored pumpkin spice condom: no comment'
p2884
I2539
sS'egypt, pa deny report that sisi offered abbas land in sinai for palestinian state'
p2885
I2116
sS'fence jumper ran deeper into the white house than secret service reported'
p2886
I2578
sS'the internet tried to make axl rose its latest death hoax victim'
p2887
I2175
sS'unhappy customer: comcast told my employer about complaint, got me fired'
p2888
I2243
sS'axl rose dies? guns n roses singer dead west hollywood home at age 52 is fake'
p2889
I2179
sS'man chops off and throws away his small penis after bad breakup'
p2890
I2503
sS"disturbed aunt cuts off nephew's penis after he burst's in on her on the toilet."
p2891
I2169
sS'nigerian claims of boko haram cease-fire hurt by violence'
p2892
I2429
sS'who says reports of suspected ebola cases in iraq are untrue'
p2893
I2345
sS'apple watch may be powered by samsung processor'
p2894
I2491
sS'gender assignment surgery to be given to hermaphrodite cat'
p2895
I2405
sS'original apple watch health features were dropped due to consistency issues'
p2896
I2152
sS'iraqi official dismisses unfounded reports that isis fighters have ebola'
p2897
I2341
sS'the pumpkin spice condom is not happening'
p2898
I2545
sS"vice's shane smith drops 300,000 on vegas dinner"
p2899
I2526
sS'u.s. airstrikes hit isis leader: terror group chief critically wounded in iraq after coalition forces bomb jihadi leaders'
p2900
I2078
sS'boko haram denies truce, says kidnapped girls married'
p2901
I2453
sS'hbo and apple in talks for 15month apple tv streaming service launching in april'
p2902
I2142
sS"woman reportedly cuts off husband's penis twice in one night"
p2903
I2583
sS'google said to buy six silicon valley buildings for 585 million'
p2904
I2273
sS'iraqi health official: ebola has killed 5 isis fighters'
p2905
I2330
sS'research medical center denies reports that a patient has ebola'
p2906
I2254
sS'isis leader injured in airstrike during meeting in iraq'
p2907
I2072
sS'if they are beautiful, the woman will be in trouble: saudi arabia religious police ban tempting eyes'
p2908
I2499
sS'boko haram denies ceasefire, says kidnapped girls are now married'
p2909
I2416
sS'white house fence jumper pushed past female guard'
p2910
I2568
sS'vice media ceo shane smith spent 300,000 on las vegas dinner report'
p2911
I2524
sS"angry aunt who sliced off three-year-old nephew's penis facing five years in jail"
p2912
I2168
sS'update: children used as dogs in fights'
p2913
I2211
sS'north dakota names landfill after obama'
p2914
I2456
sS'tiger woods serving secret ped suspension?'
p2915
I2558
sS'is ebola virus spreading among isis militants? reports claim jihadists seeking cure at mosul hospital'
p2916
I2331
sS'isis getting ebola'
p2917
I2350
sS"china penis amputation: cruel aunt viciously mutilates toddler's genitals as punishment"
p2918
I2167
sS"el-sisi denies claims he'll give sinai land to palestinians"
p2919
I2107
sS'raven-symon slams rumors that bill cosby molested her'
p2920
I2478
sS'ibm to cut more than 111,000 jobs in largest corporate lay-off ever'
p2921
I2311
sS'oscar winner christian bale to play steve jobs in upcoming biopic'
p2922
I2217
sS"comcast got me fired a man says after he complained about the cable company's service, they called his boss"
p2923
I2249
sS'al-sisi proposes: extend gaza strip into sinai and establish palestinian state there'
p2924
I2114
sS'christian bale to play steve jobs in new movie'
p2925
I2226
sS'hilarious: north dakota pays special tribute to president obama'
p2926
I2457
sS'desperate bride marries wedding guest instead of groom'
p2927
I2196
sS'boko haram denies truce to release kidnapped schoolgirls'
p2928
I2422
sS"christian bale in talks to star in sony's steve jobs film"
p2929
I2234
sS'chugging eggnog at office party lands man in hospital'
p2930
I2390
sS'missing libyan aircraft spark fears of 911-style attack in north africa'
p2931
I2088
sS'jihadists steal commercial jets, raise 911 fears'
p2932
I2098
sS'boko haram agrees to release schoolgirls, nigeria says'
p2933
I2449
sS'saudi arabia outlaws tempting eyes'
p2934
I2500
sS'russian man wakes up to find his testicles have been stolen'
p2935
I2553
sS'tiger woods agent shoots down report of failed drug test'
p2936
I2563
sS"christian bale will play steve jobs in sony's next biopic"
p2937
I2227
sS'nigeria announces truce with boko haram fate of schoolgirls unclear'
p2938
I2442
sS'utah man hospitalized after winning eggnog chugging contest'
p2939
I2388
sS'islamist militants steal 11 commercial planes in libya, sparking terror attack fears'
p2940
I2095
sS'isis terror chief believed dead: iraqi military confirm warlord was injured in us-led airstrike as speculation grows feared jihadist perished in attack'
p2941
I2079
sS'groom unwell, bride weds guest in fit of rage'
p2942
I2188
sS'boko haram: kidnapped girls have been married off, truce never happened'
p2943
I2438
sS'is beheads its own fighters in accordance with their interpretation of sharia law'
p2944
I2318
sS'isis militants allegedly contracted ebola'
p2945
I2344
sS'what glenn beck fears may be done with the 11 missing jets'
p2946
I2102
sS'boyfriend cuts off his penis and throws it in the bin after girlfriend dumps him for being bad in bed'
p2947
I2507
sS'islamic state uses chlorine gas against iraqi forces'
p2948
I2357
sS'no, saudi arabia has not banned the tempting eyes'
p2949
I2498
sS'did comcast get a man fired from his job for complaining about its service?'
p2950
I2253
sS'pictured: recent muslim convert michael zehaf-bibeau who shot dead a solider and opened fire on canadian parliament'
p2951
I2462
sS'accountant says comcast got him fired for contesting bogus charges'
p2952
I2244
sS'taibbi takes time out from first look after disagreements. can i publish our emails now, matt?'
p2953
I2394
sS'kim jong ill? analysts say 27-year-old sister kim yo jong may be running north korea video'
p2954
I2373
sS'iraqi media: isis militants have contracted ebola'
p2955
I2351
sS'vice ceo throws down 300k on lavish vegas dinner'
p2956
I2518
sS'former pga tour player: tiger woods suspended for drug test failure'
p2957
I2560
sS'n korean leader misses annual ritual sister takes over duties'
p2958
I2376
sS'someone painted a graffiti dick on a 2.5 million car'
p2959
I2202
sS'married tv actor wakes up to find his testicles have been stolen after he is drugged in russian bar by attractive blonde working for organ traffickers'
p2960
I2554
sS"jealous wife who chopped off husband's penis for cheating on her, chops it off a second time"
p2961
I2589
sS'islamic state executed two of its militants in the city of al- bokamal.'
p2962
I2319
sS"rumors swirling about israel's shocking sinai endgame plan for palestinians in gaza"
p2963
I2115
sS'afghan mother kills 25 taliban'
p2964
I2415
sS'the pumpkin-spice condom is just a figment of your own gross imagination'
p2965
I2534
sS"no joke: 5-year-old billed for missing friend's birthday party"
p2966
I2180
sS'ibm job cuts? d.r. horton soars on beat att expands in mexico'
p2967
I2307
sS'calm yourselves, durex has not come out with a pumpkin spice condom'
p2968
I2537
sS'breaking: isis uses chemical weapons murders 300 iraqi soldiers in chlorine gas attack'
p2969
I2362
sS'christian bale will not play steve jobs'
p2970
I2241
sS'google to buy big chunk of pacific shores, iconic redwood city office park'
p2971
I2269
sS"in kim jong un's absence, his sister may rule. or not."
p2972
I2377
sS'is militants kill 300 iraqi soldiers with chlorine gas'
p2973
I2353
sS'pictured: libyan islamist rebels pose with planes seized from tripoli airport as u.s. officials warn they could be used to carry out terrorist attack on 911 anniversary'
p2974
I2093
sS'ibm to cut more than 110,000 jobs, report says'
p2975
I2309
sS'reports of missing libyan planes raise 911 terror fears'
p2976
I2103
sS'government fires employee who skipped work for 24 years'
p2977
I2382
sS"that boko haram ceasefire in nigeria isn't a ceasefire"
p2978
I2454
sS"wife chops off cheating husband's penis twice then stray animal steals it"
p2979
I2582
sS"boy, 5, given 15.95 invoice for missing friend's birthday party"
p2980
I2187
sS'isis leader injured in air strike, iraqi officials say'
p2981
I2073
sS'google seals massive sunnyvale, redwood city deals'
p2982
I2268
sS'what we know about kim yo jong, who may control north korea'
p2983
I2364
sS'comcast got me fired after billing dispute, says california man'
p2984
I2242
sS'canadian official identifies dead ottawa gunman as michael zehaf-bibeau'
p2985
I2473
sS"vice squad's 1m win lights up las vegas"
p2986
I2523
sS"israeli right welcomes sisi's offer to a palestinian state in sinai"
p2987
I2110
sS'tiger woods is not on suspension for failing a drug test, his agent and a pga official say'
p2988
I2564
sS'islamic state militants allegedly used chlorine gas against iraqi security forces'
p2989
I2363
sS'evocative shape: is vladimir putin trolling the world with his motorcade formation?'
p2990
I2474
sS'boko haram agrees to cease-fire, may release schoolgirls'
p2991
I2452
sS'iraqi and kurdish media reports cases of ebola among islamic state fighters in mosul'
p2992
I2342
sS'afghan mother kills 25 taliban fighters in seven-hour gunbattle after watching her son slain in ambush'
p2993
I2411
sS'white house fence jumper got farther than previously thought, sources say'
p2994
I2567
sS'aaron sorkin confirms christian bale will play steve jobs'
p2995
I2224
sS'apple in talks to become launch partner for cable-free hbo now service'
p2996
I2137
sS"abu bakr al-baghdadi's fate still unknown after us air strike on isis as iraqi forces enter baiji"
p2997
I2081
sS'rumor suggests 12-inch retina macbook air could launch during march 9 apple watch event'
p2998
I2129
sS'google to buy redwood city offices for 585m'
p2999
I2274
sS'actor has his testicles stolen after meeting young blonde woman at a bar'
p3000
I2551
sS'first human death confirmed from eating gmo satire'
p3001
I2297
sS'apple was forced to nix key health features from its smartwatch -- report'
p3002
I2150
sS'boko haram denies nigeria cease-fire claim'
p3003
I2423
sS'who should play steve jobs now that christian bale quit?'
p3004
I2223
sS'hbo now coming this spring for 15 per month, with apple as launch partner'
p3005
I2138
sS'christian bale set to play steve jobs in forthcoming biopic of apple co-founder'
p3006
I2238
sS'another mossad victim? police chief, helric fredou, investigating charlie hebdo commits suicide'
p3007
I2278
sS"yemen says u.s. man freed, sister says he's dead"
p3008
I2283
sS"pumpkin spice condoms, and 6 other flavors that aren't happening"
p3009
I2540
sS"university bans word freshman because it's sexist and promotes rape"
p3010
I2266
sS'india: angry bride marries guest after original groom falls ill during wedding ceremony'
p3011
I2192
sS"this is the recording you thought you'd lost forever"
p3012
I2302
sS'daash ebola transferred to mosul google translate'
p3013
I2328
sS'boko haram ceasefire doubts after attacks reported in nigeria'
p3014
I2447
sS'islamic state accused of using chlorine gas on iraqi soldiers'
p3015
I2355
sS'israeli sisi offered abbas a palestinian state in sinai'
p3016
I2109
sS'missing libyan jetliners raise fears of terror attacks on 911'
p3017
I2104
sS'in moscow, police are looking for a felon, cut the male genitals'
p3018
I2549
sS'isis executes own fighters for spying, embezzlement'
p3019
I2320
sS'axl rose not dead: fake msnbc death hoax goes viral on facebook'
p3020
I2176
sS'raven symone files molestation charges against bill cosby'
p3021
I2482
sS"widower cries tears of joy after hearing late wife's voice again"
p3022
I2304
sS'canadian michael zehaf-bibeau thought to be the gunman in ottawa shooting'
p3023
I2469
sS'newly-found document holds eyewitness account of jesus performing miracle'
p3024
I2397
sS"what they earn: vice ceo shane smith's 300,000 steak dinner"
p3025
I2516
sS'does isis have ebola? probably not media reports it anyway'
p3026
I2323
sS"mum helps kill 25 taliban fighters during seven-hour gun battle in revenge for cop son's death"
p3027
I2412
sS'a vice guide to spending 300,000 on dinner'
p3028
I2521
sS'google said to buy redwood city offices for 585 million'
p3029
I2271
sS'rampur: angry bride marries guest after learning groom is epileptic'
p3030
I2191
sS'another victim? raven-symon reveals what really happened on cosby show set'
p3031
I2479
sS'accountant claims comcast got him fired from his job for reporting a customer service issue'
p3032
I2247
sS'omar gonzalez, white house fence-jumper, made it farther inside'
p3033
I2574
sS'wedding punch-up when bride marries guest instead after groom suffers epileptic fit'
p3034
I2195
sS'pga tour denies claim that tiger woods failed a drug test'
p3035
I2556
sS'kidnapped nigerian schoolgirls: government claims ceasefire deal with boko haram that will bring missing girls home'
p3036
I2441
sS'sick kansas city man said not to have ebola, u.s. plans new steps to fight virus'
p3037
I2260
sS"is kim jong-un's sister now the power behind the north korean throne?"
p3038
I2375
sS'another isis massacre: isis kills 300 iraqi soldiers with chlorine gas'
p3039
I2360
sS'apple struggled to find purpose for apple watch after many planned health features were cut, 5 million units ordered'
p3040
I2146
sS'this soap opera star reportedly had his testicles stolen by an attractive blonde organ trafficker'
p3041
I2552
sS'a husband breaks down in tears after lost voicemail message by his late wife is recovered'
p3042
I2301
sS'urgent: isis kills 300 iraqi soldiers by chlorine gas attack in saqlawiyah'
p3043
I2359
sS'update: soldier, gunman who died in ottawa rampage identified'
p3044
I2468
sS'nigeria boko haram blamed for raids despite truce claim'
p3045
I2427
sS'batman set to play steve jobs in upcoming biopic'
p3046
I2219
sS'elon university has not banned the term freshman, despite rumors'
p3047
I2264
sS'axl rose dead? fans freak out over death rumors'
p3048
I2174
sS'comcast gets customer fired for complaining about poor service'
p3049
I2251
sS'us hostage luke somers and sa pierre korkie killed during yemen rescue bid'
p3050
I2284
sS'egypt offers abbas land in sinai for future palestinian state read'
p3051
I2111
sS'vice ceo shane smith reportedly spent 300,000 on a steak dinner at ces'
p3052
I2520
sS'six months after abducting nigerian schoolgirls, boko haram reportedly wants to free them'
p3053
I2455
sS'apple-hbo deal seen launching web-only apple tv streaming service for 15 per month'
p3054
I2143
sS"pierson confirms fence jumper's white house path"
p3055
I2579
sS'man chops off his own penis after girlfriend told him he was no good in bed'
p3056
I2505
sS'matt taibbi takes a leave of absence from first look media'
p3057
I2395
sS'that was fast: christian bale bails on steve jobs biopic'
p3058
I2236
sS'not coming to a store near you: the pumpkin spice condom'
p3059
I2543
sS'the school lunches that shame america: photos reveal just how meager us students meals are compared to even the most cash-strapped of nations'
p3060
I2317
sS'christian bale pulls out of upcoming steve jobs biopic'
p3061
I2235
sS'exclusive: apple to unveil the long-awaited retina macbook air at its spring forward event'
p3062
I2127
sS'reports isis fighters have contracted ebola are incorrect, says iraqi health ministry'
p3063
I2338
sS"saudi arabia's religious police outlaw tempting eyes"
p3064
I2501
sS'missing jetliners raise fear of new 911-style attacks after libyan airport falls to islamic militants'
p3065
I2097
sS'gene munster predicts 499 steel apple watch, 4,999 for 18k gold edition'
p3066
I2547
sS'luke somers dies in rescue attempt, sister says yemeni defense ministry says unnamed us hostage freed'
p3067
I2291
sS'amazon reportedly launching free, ad-supported video service updated'
p3068
I2123
sS'owl kills mate because he has a small penis'
p3069
I2527
sS'ibm corp expected to cut more than 110,000 jobs in massive overhaul, report says'
p3070
I2306
sS'parents billed 29 for a no-show fee after five-year-old son misses birthday party'
p3071
I2182
sS'amazon reportedly developing a new weapon to combat netflix'
p3072
I2119
sS'police chief in charge of paris attacks commits suicide'
p3073
I2282
sS'a wonderful, wonderful sound: man breaks down after hearing voicemail from his late wife that was lost for 14 years'
p3074
I2305
sS'michael abdul zehaf bibeau pictures: photos of alleged isis-linked gunman in canada'
p3075
I2472
sS'ibm to sack 111,800 employees in record mass layoff'
p3076
I2308
sS'christian bale just bailed on the steve jobs movie'
p3077
I2221
sS'allegation bill cosby sexually molested raven symone are just a hoax'
p3078
I2480
sS'man chops off own penis after being dumped by his girlfriend'
p3079
I2513
sS'man breaks down in tears when a lost recording of his deceased wife resurfaces'
p3080
I2299
sS'fence-jumper got farther into white house'
p3081
I2577
sS'fate of isis leader remains unclear after us airstrike in iraq'
p3082
I2085
sS'govt fires employee who skipped work for 24 years'
p3083
I2381
sS"christian bale won't play steve jobs"
p3084
I2229
sS"is kim jong un's sister kim yo jong in charge?"
p3085
I2366
sS"cruel aunt cuts off three-year-old nephew's penis after he walks in on her using the loo"
p3086
I2163
sS'afghan family kills 25 taliban, media report'
p3087
I2407
sS"raven-symone did not accuse bill cosby of molestation or rape it's a hoax"
p3088
I2481
sS'11 jetliners missing after islamist takeover of airport'
p3089
I2105
sS'charlie hebdo top cop helric fredou kills himself hours after magazine massacre'
p3090
I2280
sS'man cuts off manhood, throws it in the bin, after girlfriend leaves over small penis'
p3091
I2510
sS'tour, agent: tiger woods not banned'
p3092
I2557
sS'exec popped for 300k dinner after run at blackjack'
p3093
I2522
sS'ebola scare in kansas city'
p3094
I2255
sS'eggnog-chugging contest leads to hospital stay'
p3095
I2392
sS'canadian cat mittens to undergo gender reassignment surgery after it is revealed to be a hermaphrodite'
p3096
I2404
sS'watch: stan beaton cries tears of joy when phone engineers find treasured voicemail recording of his late wife he thought was lost forever'
p3097
I2303
sS'jilted lover chops off his penis after girlfriend dumps him'
p3098
I2504
sS'amazon plans a streaming-video alternative'
p3099
I2121
sS'an indian civil servant just got sacked after not turning up for work for 25 years'
p3100
I2384
sS'new twist: charlie hebdo police investigator turns up dead, suicided'
p3101
I2276
sS'has north korean dictator kim jong-un been replaced by his sister?'
p3102
I2368
sS'rcmp release security footage of michael zehaf bibeau during attack, say he shot soldier in back'
p3103
I2459
sS'nigerian woman quarantined in kc with ebola-like symptoms video'
p3104
I2262
sS'children used to replace fighting dogs'
p3105
I2212
sS"kim yo-jong in charge: kim jong-un's sister replaces north korean dictator during illness"
p3106
I2371
sS"michael zehaf-bibeau id'd as canadian shooting suspect in ottawa also known as michael joseph hall"
p3107
I2471
stp3108
.