cnumpy.core.multiarray
_reconstruct
p0
(cnumpy
ndarray
p1
(I0
tp2
S'b'
p3
tp4
Rp5
(I1
(L300L
tp6
cnumpy
dtype
p7
(S'O8'
p8
I0
I1
tp9
Rp10
(I3
S'|'
p11
NNNI-1
I-1
I63
tp12
bI00
(lp13
S'Apple will sell 19 million Apple Watches in 2015'
p14
aS"Two Australian men kept a McDonald's Quarter Pounder with Cheese for 20 years"
p15
aS'Apple will sell 24 million Apple Watches in the first nine months'
p16
aS'400 men were castrated on the orders of an Indian spiritual guru'
p17
aS'A 600-pound Australian woman gave birth to 40-pound baby'
p18
aS'A wife and child of ISIS leader Abu Bakr al-Baghdadi were detained in Lebanon'
p19
aS'Jihadist Khalil al-Britani was killed'
p20
aS'Amazon will open its first physical store in NY this year'
p21
aS'President Obama ordered the Federal Reserve to adopt the Euro'
p22
aS'The Apple Watch will include an AMOLED panel from LG Display'
p23
aS'Apple will launch a 12 MacBook Air in 2015'
p24
aS'The larger Apple Watch Edition will cost 10,000'
p25
aS'Apple will hold a special medialaunch event in February'
p26
aS'Apple is buying Path'
p27
aS'Apple will reveal a refreshed Apple TV at the March 9th Spring Forward Event'
p28
aS'Apple will sell 50 million Apple Watches in 2015'
p29
aS'Apple Watch will only be sold in Apple Stores at launch'
p30
aS'Apple Watch battery will only last 2.5 to 4 hours of active use'
p31
aS"Apple Watch battery doesn't last more than one day"
p32
aS'The Apple Watch will ship with a diagnostics port'
p33
aS'The Digital Crown on the Apple Watch will come in different colors.'
p34
aS'The gold Apple Watch Edition will cost between 4,000 and 5,000 USD'
p35
aS'The gold Apple Watch Edition will start at 4,999 USD'
p36
aS'The Apple Watch will launch in February'
p37
aS'The gold Apple Watch Edition will retail for 950 USD'
p38
aS'The Apple Watch Edition has less gold than typical 18k gold'
p39
aS'The Apple Watch is sufficiently water resistant to wear in the shower'
p40
aS'The Apple Watch will be available in Germany at launch'
p41
aS"Developers have limited access to Apple Watch sensors and features, to make simpler apps that don't drain battery"
p42
aS'Apple Watch will have 512 MB of RAM and 4GB or 8GB storage options'
p43
aS'The Apple Watch only receives notifications when on the wrist'
p44
aS'Apple is considering the release of a platinum edition of the Apple Watch'
p45
aS'The Apple Watch will include a feature called Power Reserve'
p46
aS'The Apple Store will have custom-designed safes to store the gold Apple Watch'
p47
aS"The Apple Watch will ship for Valentine's Day"
p48
aS'The Apple Watch will ship in March'
p49
aS'Apple removed from Apple Watch a skin-conductivity sensor that would give a more accurate heart rate'
p50
aS'Apple have different Watch bands for sale at launch'
p51
aS'The Apple Watch takes about two hours to charge'
p52
aS'The president of Argentina became the adopted godmother of a boy to help stop him from becoming a werewolf'
p53
aS'Teacher had sex with 16-year-old'
p54
aS'Anonymous street artist Banksy was arrested'
p55
aS'Artist Banksy drew a cartoon about the Charlie Hebdo murders'
p56
aS'Abdel-Majed Abdel Bary beheaded James Wright Foley'
p57
aS'The Batmobile was stolen'
p58
aS'Apple will shutdown Beats Music'
p59
aS"Harvard professor Ben Edelman sent an email with racist overtones to a restaurant that he'd argued with over food pricing"
p60
aS'The Washington Post is developing a new app that will be pre-installed on the new Kindle Fire'
p61
aS'A man was saved from a bear attack thanks to a Justin Bieber ringtone'
p62
aS'Big Bank Hank of the Sugarhill Gang is dead'
p63
aS'A video of bigfoot was shot in southwestern Russia'
p64
aS'A bird pooped on Vladimir Putin during a speech'
p65
aS'A federal judge ruled that black women do not have independent naming rights for their children'
p66
aS'There was a terrorist plot to target Black Friday shopppers'
p67
aS'Seven underage Bosnian girls got pregnant on a school trip'
p68
aS'Boston marathon bombing suspect Dzhokhar Tsarnaev was severely beaten in prison'
p69
aS'Tom Brokaw wants Brian Williams fired'
p70
aS"A DNA test proved that Bruno Mars is Michael Jackson's son"
p71
aS'A woman broke up with her cheating boyfriend by printing out and wrapping his incriminating Twitter direct messages'
p72
aS'Spurned wife leaves cheating husband and her twin naked in busy car park'
p73
aS'The Chinese public broadcaster published an article on Tips for Chinese choosing an English name.'
p74
aS'Claim a Chinese man chopped off his own penis due to his frustration with not finding love'
p75
aS'Comcast is telling customers Tor is illegal to use'
p76
aS'A 50-foot crab was photographed in the U.K.'
p77
aS'A child soldier with ISIS was killed in battle, making him youngest Islamic State fighter to die'
p78
aS'Apple will offer custom engraving on the Apple Watch'
p79
aS'NBC meteorologist Mike Seidel was caught relieving himself on camera'
p80
aS'The woman behind the hugely popular DC Toys Collector Disney Collector YouTube channel is a former porn star'
p81
aS'An abandoned dog was found at Scottish railway station with a suitcase of his belongings'
p82
aS'eBay will make an Apple Watch app'
p83
aS'A man in Frisco, Texas being examined for Ebola came into direct contact with Ebola victim Thomas E. Duncan'
p84
aS'The town of Purdon, Texas was quarantined after a family of five tested positive for Ebola'
p85
aS'A ghost ship filled with Ebola-infected rats is heading towards Florida.'
p86
aS"ESPN planned a special domestic violence panel that didn't include any women"
p87
aS'Evander Kane could be traded by the Jets'
p88
aS'The BBC carried a report that questions the official version of the Charlie Hebdo murders'
p89
aS'A woman aborted a fetus after discovering it was male'
p90
aS"A Ferguson protester held up a sign that read, No mother should have to fear for her son's life every time he robs a store."
p91
aS'20-year-old Deandre Joshua was killed in retaliation for his grand jury testimony in the Michael Brown case.'
p92
aS'Fidel Castro has died'
p93
aS'The stainless steel Apple Watch will retail for 500 USD'
p94
aS'Apple has ordered at least 5 million watches for its first run'
p95
aS'A former Guantanamo Bay prisoner executed journalist James Wright Foley.'
p96
aS'The US threatened to prosecute the family of slain journalist James Foley'
p97
aS"Robert O'Neill, the former SEAL who claims to have shot Bin Laden, was attacked in his home by members of a street gang"
p98
aS'Fort Carson is locked down because of a missing nuclear weapon'
p99
aS'Apple will launch a 4-inch iPhone in 2015'
p100
aS'Fox News is using FoxNewsPress to respond to Twitter users over the viral hashtag FoxNewsFacts'
p101
aS'The Floria State University shooter is named Myron May'
p102
aS"Saudi Arabia's national airline will introduce gender segregation on flights"
p103
aS'Canadian-Israeli Gill Rosenberg captured by ISIS while fighting with Kurdish forces'
p104
aS'The U.S. killed Ahmed Abdi Godane in an airstrike'
p105
aS'The gold Apple Watch Edition will cost 1,200'
p106
aS'The gold Apple Watch edition will cost under 4,500 USD'
p107
aS'The gold Apple Watch Edition will cost 9,999 USD'
p108
aS'The gold Apple Watch Edition will cost 4,999 USD'
p109
aS'Man Sets College On Fire With Marriage Proposal'
p110
aS'The group behind the Sony hack sent a message to company execs praising their decision to pull The Interview'
p111
aS"Protestors in Hong Kong adopted Hands up, don't shoot from Ferguson"
p112
aS'A passenger at Dulles airport wore a hazmat suit'
p113
aS'ISIS hostage Alan Henning found innocent by Sharia court'
p114
aS'A N.Y. high schooler earned 72 million in the stock market'
p115
aS"YouTube star Josh Paler Lin gave a homeless man 100 and filmed how he spent it without the man's knowledge"
p116
aS'Claim Hewlett-Packard will split itself into two separate companies'
p117
aS'Playboy founder Hugh Hefner is dead'
p118
aS'There will be 100,000 or more Apple Watch Apps in the AppStore by April 10'
p119
aS"A crowd chopped off a man's penis after he was caught trying to rape a woman"
p120
aS'Apple will release iOS 8.2 on March 9'
p121
aS'Reset All Settings option in iOS 8 deletes iWork files'
p122
aS"Apple added additional reinforcement to its iPhone 6 Plus to ensure it doesn't bend"
p123
aS'The iPhone 6s will have a dual-lens camera'
p124
aS'The iPhone 6 pulls out facial hair when being used'
p125
aS'The Iraqi army shot down two British planes that were delivering weapons to ISIS'
p126
aS'ISIS captured a U.S. airdrop of weapons intended for Kurdish fighters'
p127
aS'ISIS is a mile away from Baghdad'
p128
aS'ISIS used chemical weapons in Kobane'
p129
aS'American hostage Kayla Mueller was killed in a coalition bombing campaign against ISIS'
p130
aS'ISIS beheaded British aid worker Daivd Haines'
p131
aS'ISIS fighters are being trained to fly three captured fighter jets'
p132
aS'ISIS fighters were caught trying to enter the U.S. via the U.S.-Mexico border'
p133
aS'ISIS is harvesting and selling human organs to help fund its operations'
p134
aS'ISIS leader Abu Bakr al-Baghdadi was killed by an U.S. airstrike'
p135
aS'ISIS beheaded journalist James Wright Foley'
p136
aS"ISIS gave a Kurdish woman a meal and told her she'd eaten her own son"
p137
aS'ISIS is dropping bombs containing live scorpions'
p138
aS'ISIS is trying to sell the remains of James Foley'
p139
aS'An ISIS treasurer stole money from the organization and fled'
p140
aS'Israel caused flooding in Gaza by opening river dams'
p141
aS'Italian fishermen caught a 280-pound catfish'
p142
aS'An nun in an Italian convent gave birth to a child'
p143
aS'Jihadi John is a Londoner named Mohammed Emwazi'
p144
aS'ISIS fighter Jihadi John was injured in an airstrike'
p145
aS'Kim Jong Un broke both of his ankles'
p146
aS'Kim Jong Un is ill because he eats too much cheese'
p147
aS'Kim Jong Un is drinking cobra wine to help restore his virility'
p148
aS'Jose Canseco was shot'
p149
aS'Judd Nelson is dead'
p150
aS'Kanye West has been banned from future awards shows'
p151
aS"Kei Nishikori is the world's highest-paid tennis player"
p152
aS'Kevin Vickers, the Sergeant-at-Arms in the House of Commons, shot a gunman on Parliament Hill'
p153
aS'KFC restaurants in Colorado will start selling marijuana'
p154
aS'Kim Jong Un hurt his leg during military exercises'
p155
aS"Jordan's King Abdullah II will participate in air strikes against ISIS"
p156
aS"A South Korean woman's hair was accidentally eaten by a robot vacuum cleaner"
p157
aS'Kurdish fighter Rehana was killed by ISIS'
p158
aS'Robert Plant ripped up an 800 million contract offer to reunite Led Zeppelin'
p159
aS'Lego sent a letter to parents in the 1970s that had a powerful message about gender equality'
p160
aS'Lenovo will make a bid to buy Blackberry'
p161
aS'LG will supply the screens for the Apple Watch that goes on sale in April'
p162
aS'LG will be the sole supplier of OLED displays for the Apple Watch'
p163
aS'Former Cosby Show actor Lisa Bonet tweeted about the accusations against Bill Cosby'
p164
aS'Macaulay Culkin is dead'
p165
aS"McDonald's will stop serving overweight customers"
p166
aS'Rap artist Macklemore joined ISIS'
p167
aS'Magic mushrooms were found in a Buckingham Palace garden'
p168
aS'A Russian boy attracts metal objects with his body after being hit with jolt of electricity'
p169
aS'A man was removed from an American Airlines flight after he became upset due to being wished a Merry Christmas by the crew'
p170
aS'Video shows the moment when a man tells his parents that he paid of their mortgage'
p171
aS'A man in England is wanted by police for slapping people who sneeze in public'
p172
aS"Charles Manson's fiance wanted to marry him to obtain custody of his corpse"
p173
aS'Video shows a U.S. Marine surviving being shot in the helmet'
p174
aS'The final Marines to leave the U.S. embassy in Yemen handed their weapons over to Houthi rebels'
p175
aS'Mass grave found in Mexico holds bodies of missing students'
p176
aS"McDonald's will stop serving the Big Mac"
p177
aS"Two locations in the U.S. are still serving the original McDonald's pizza"
p178
aS'A meteorite landed in Nicaragua.'
p179
aS"Saudi TV blurred out Michelle Obama's uncovered face during a visit to the country"
p180
aS'A cat that was hit by a car and believed dead dug himself out of his grave'
p181
aS'Three missing Afghan soldiers were found trying to enter Canada'
p182
aS'Mitt Romney said Michelle Obama should be called the First Woman, not the First Lady'
p183
aS'Mob Strips Adulterous Woman'
p184
aS"A Chinese mother attempted to sell her son to pay for his twin sister's lifesaving medical treatment"
p185
aS'A woman tried to eat her baby after giving birth'
p186
aS'Microsoft is going to acquire Mojang AB'
p187
aS'A man got completely naked when passing through metal detectors at a Russian airport'
p188
aS'The NHL will announce an expansion to Las Vegas in 2014'
p189
aS'Image shows a group of Nigerian women armed with AK-47s who saved a town and school from Boko Haram'
p190
aS'A 9 year old student sent a heartwarming letter to her teacher after he came out to the class'
p191
aS'The son of a North Korean is on the run in France'
p192
aS'North Korea plans to open a restaurant in Scotland'
p193
aS'Popular Christmas toy Elf On The Shelf is an espionage project run by the National Security Agency'
p194
aS'New York Police will start issuing tickets, rather than make arrests, for small amounts of marijuana'
p195
aS'An oil pipeline exploded in Saudi Arabia'
p196
aS"Loggers cut down the world's oldest tree"
p197
aS'Paul Rudd helped take down the Dallas airport homophobe'
p198
aS"A 17-year-old poured acid her boyfriend's genitals after their sex tape went viral"
p199
aS"A Chinese man's penis was stolen by thieves"
p200
aS'A Video shows sexist Peruvian men being tricked into harassing their own mothers'
p201
aS'The female UAE pilot bombing ISIS was disowned by her family'
p202
aS'A Michigan pizza delivery guy received a 2,084 tip'
p203
aS'A unique planetary alignment on Jan. 4, 2015 will cause partial weightlessness on earth'
p204
aS'A mechanical polar bear in the U.K. was threatened with an Anti-Social Behaviour Order ASBO'
p205
aS"Pope Francis told a boy whose dog had died that Paradise is open to all of God's creatures"
p206
aS"Apple will open a pop-up Apple Watch store in London's Selfridges department store"
p207
aS'A predator drone was sighted over Raqqa, Syria'
p208
aS"A Catholic priest who was declared clinically dead says he met God and she's a woman"
p209
aS'Joan Rivers doctor took a selfie during her operation'
p210
aS'Robot security guards are patrolling a Microsoft campus in Silicon Valley'
p211
aS'Samsung will supply application processors for Apple Watch'
p212
aS'Two office workers in an epic battle over a stolen sandwich'
p213
aS'A Saudi cleric declared that snowmen are anti-Islamic'
p214
aS'An Alaska Airlines plane was delayed when a scorpion stung a woman onboard'
p215
aS'An Arizona boy was charged with self-rape after his mother caught him masturbating'
p216
aS'Seth Rogen will play Steve Wozniak in a film about Steve Jobs'
p217
aS"There's an audio recording of the Michael Brown shooting"
p218
aS'Earth will experience six days of darkness in December'
p219
aS'A soldier was shot at the War Memorial in Ottawa, Canada'
p220
aS'There will be a Sons of Anarchy film'
p221
aS'ISIS beheads Steve Sotloff'
p222
aS"A tropical spider burrowed under a man's skin"
p223
aS'The stainless steel Apple Watch will cost 550 USD'
p224
aS'J.J. Abrams wants a summer release date for Star Wars: Episode VII'
p225
aS'A fourth-grade student from Texas was suspended after threatening another student with magic'
p226
aS'At least one of the Taliban Five exchanged for soldier Bowe Bergdahl is trying to return to militancy'
p227
aS'Taylor Lianne Chandler was born intersex'
p228
aS'Taylor Lianne Chandler had a romantic relaitonship with Olympic swimmer Michael Phelps'
p229
aS'TBS speeds up Seinfeld episodes to fit in more commercials'
p230
aS'Jess Smith of Chatham, Kent was the smiling sun baby in the Teletubbies TV show'
p231
aS'Tesla is building its gigfactory in Nevada'
p232
aS"A Texas plumbing company's truck is now being used by militant Islamist fighters in Syria"
p233
aS'A jurisdiction of Texas is now under Sharia law'
p234
aS'A Texas turkey farm was contaminated with Ebola'
p235
aS'North Korea issued a directive that anyone with the name Kim Jong Un must change it'
p236
aS'A Florida woman got a third breast'
p237
aS'Tiger Woods is selling his island in Lake Mlaren, Sweden'
p238
aS"Apple CEO Tim Cook changed the company's on-hold music"
p239
aS'A 113-year-old time capsule was found hidden inside a lion statue in Boston'
p240
aS'Transgender teenager Leelah Alcorn committed suicide and left a note on her Tumblr'
p241
aS"A man caught stealing women's underwear was forced to wear it and walk around in public"
p242
aS'A man paid 300 for surgery for his constipated goldfish'
p243
aS'A developer quit his job with an X-rated message inserted in a video game called Electric Boogie'
p244
aS'Viral photo shows a worker at an app-ranking manipulation farm'
p245
aS"Vogue magazine's new offices are infested with rats"
p246
aS'After Canadian police published a wanted post on Facebook, the target replied and later turned himself in'
p247
aS'Apple will sell 15 million Apple Watches in 2015'
p248
aS'Willie Nelson is dead'
p249
aS'An 85-year-old woman was arrested for making fur coats out of her neighbors cats'
p250
aS'Lovesick woman stays in KFC for one week'
p251
aS'A woman lost her eye after being hit with a bean bag shot by police in Ferguson'
p252
aS"A woman woke up during brain surgery and talked about cats, asked the surgeons How's it going?"
p253
aS'ISIS leader Abu Bakr al-Baghdadi was wounded in U.S. Airstrike'
p254
aS'11 commercial aircraft went missing from the Tripoli airport'
p255
aS'Egyptian President al-Sisi proposed expanding the Gaza Strip through Sinai land'
p256
aS'Amazon will launch an ad-supported video streaming service in early 2015'
p257
aS'Apple will not reveal the iTunes subscription service based on Beats Music at the March 9th Spring Forward Event'
p258
aS'Apple will announce a 12-inch MacBook Air Retina at the March 9th Spring Forward Event'
p259
aS'Apple delayed production of a 12-inch iPad Pro and will not announce it at the March 9th event'
p260
aS'HBO Now streaming subscription is coming to Apple TV'
p261
aS'Apple will sell 30 million Watches in 2015'
p262
aS'Apple removed from Apple Watch a sensor that would monitor blood-pressure'
p263
aS'The Apple Watch will ship by the end of March'
p264
aS'Apple will take appointments at Apple Stores to try on the Apple Watch'
p265
aS"A young boy's aunt chopped off his penis after he interrupted her in the bathroom"
p266
aS'Low snowfall led an Austrian ski resort to use snow gathered the previous season'
p267
aS'Guns N Roses signer Axel Rose is dead'
p268
aS'A 5-year-old boy was invoiced for missing a birthday party'
p269
aS'An Indian bride married a guest at her wedding after her fiance had a seizure and collapsed'
p270
aS'Someone vandalized a Bugatti sportscar with a penis drawing'
p271
aS'Cesar Milln, the Dog Whisperer, has died'
p272
aS'South African dog fighters forced children to mimic dog fighting, placed bets'
p273
aS'Christian Bale to play Steve Jobs in an upcoming bio flick'
p274
aS"Comcast got a man fired from his job after he complained about the company's service"
p275
aS'There is a case of Ebola in Kansas City'
p276
aS'Elon University has banned use of the term freshman'
p277
aS'Google will purchase roughly half of Pacific Shores office park'
p278
aS'A grenade was found in a safe in Bromley, England'
p279
aS'The police officer leading the Charlie Hebdo investigation committed suicide'
p280
aS'American hostage Luke Somers was killed during a rescue attempt'
p281
aS'Doctors confirmed the first case of death by genetically modified food'
p282
aS"A widower heard his dead wife's voice again after a company managed to recover a deleted voicemail recording"
p283
aS'IBM will cut more than 110,000 jobs this week'
p284
aS'Photos comparing school lunches from around the world include a meagre offering from the U.S.'
p285
aS'ISIS executed two of its own fighters in Al-Bukamal'
p286
aS'Some ISIS fighters have contracted Ebola'
p287
aS'ISIS used chlorine gas in an attack near Fallujah'
p288
aS"Kim Jong Un's sister has been put in charge of the country"
p289
aS"The Indian government fired an employee who hadn't been to work in 24 years"
p290
aS'Man hospitalized after winning eggnog-chugging contest.'
p291
aS'Journalist Matt Taibbi has left First Look Media'
p292
aS'A historian discovered a text with an account of a miracle performed by Jesus'
p293
aS'A hermaphrodite cat in Newfoundland is getting gender assignment surgery'
p294
aS"An Afghan woman avenged her son's death by helping kill 25 Taliban fighters"
p295
aS'The Nigerian government and Boko Haram have reached a ceasefire agreement'
p296
aS'North Dakota named a landfill after President Obama'
p297
aS'The attacker shot and killed on Parliament Hill is named Michael Zehaf-Bibeau'
p298
aS'A photo shows Vladimir Putin traveled in a penis-shaped motorcade'
p299
aS'Cosby Show actress Raven Symone accused Bill Cosby of rape'
p300
aS'Samsung is producing a new chip for Apple Watch'
p301
aS'A Chinese man ended up with a tapeworm after eating Sashimi'
p302
aS'Saudi Arabia has a new law that can force women to cover up their tempting eyes'
p303
aS'A Macedonian man cut off his penis after his girlfriend broke up with him'
p304
aS'Vice Media CEO Shane Smith paid 300,000 for a Las Vegas dinner'
p305
aS'A snowy owl killed her mate because his penis was too small'
p306
aS'Durex is launching a pumpkin spice condom'
p307
aS'The stainless steel Apple Watch will be priced between 499 and 549 USD'
p308
aS'A Russian man met a woman for a drink in a sauna and woke up to find his testicles stolen'
p309
aS'Tiger Woods is serving a suspension from the PGA Tour after failing a drug test'
p310
aS'Video shot by student for school project shows his dad losing it after being asked inane questions'
p311
aS'White House fence-jumper made it inside the main floor'
p312
aS"A woman cut off her husband's penis twice"
p313
atp314
b.