(dp0
Vmt_A7204W9E8IR1R
p1
(dp2
S'ip'
p3
(lp4
(I0
I0
tp5
a(V0
p6
I20
tp7
a(V0
p8
I20
tp9
a(V0
p10
I-20
tp11
a(V0
p12
I15
tp13
a(V0
p14
I20
tp15
a(V0
p16
I20
tp17
asS'code'
p18
S'C0P75R95162'
p19
sS'condition'
p20
I0
sS'points'
p21
I75
ssVmt_A3APMO8WXVH1V0
p22
(dp23
S'ip'
p24
(lp25
(I0
I0
tp26
a(V4
p27
I16
tp28
a(V20
p29
I13
tp30
a(V9
p31
I-10
tp32
a(V4
p33
I15
tp34
a(V2
p35
I0
tp36
a(V3
p37
I14
tp38
asS'code'
p39
S'C0P48R4237'
p40
sS'condition'
p41
I0
sS'points'
p42
I48
ssS'uF3VGOQW5W1'
p43
(dp44
S'ip'
p45
(lp46
(I0
I0
tp47
asS'points'
p48
I0
sS'condition'
p49
I1
ssVmt_A2VD133723IZR8
p50
(dp51
S'ip'
p52
(lp53
(I0
I0
tp54
a(V0
p55
I7
tp56
a(V0
p57
I-11
tp58
a(V0
p59
I-13
tp60
a(V0
p61
I15
tp62
a(V0
p63
I10
tp64
a(V0
p65
I12
tp66
a(V0
p67
I-12
tp68
asS'code'
p69
S'C0P20R68896'
p70
sS'condition'
p71
I0
sS'points'
p72
I8
ssS'uNXQ7MOIT4B'
p73
(dp74
S'ip'
p75
(lp76
(I0
I0
tp77
asS'points'
p78
I0
sS'condition'
p79
I1
ssS'uAJ0O6UYMJG'
p80
(dp81
S'ip'
p82
(lp83
(I0
I0
tp84
asS'points'
p85
I0
sS'condition'
p86
I1
ssVmt_A2FLZP3C6U67JY
p87
(dp88
S'ip'
p89
(lp90
(I0
I0
tp91
a(V11
p92
I20
tp93
a(V11
p94
I20
tp95
a(V5
p96
I-14
tp97
a(V5
p98
I20
tp99
a(V7
p100
I0
tp101
a(V8
p102
I13
tp103
asS'code'
p104
S'C1P59R58180'
p105
sS'condition'
p106
V1
p107
sS'points'
p108
I59
ssVmt_A28X02I7Q5J48B
p109
(dp110
S'ip'
p111
(lp112
(I0
I0
tp113
a(V13
p114
I-7
tp115
a(V8
p116
I16
tp117
a(V6
p118
I-12
tp119
a(V8
p120
I14
tp121
a(V0
p122
I0
tp123
a(V9
p124
I-8
tp125
asS'code'
p126
S'C0P3R6956'
p127
sS'condition'
p128
V0
p129
sS'points'
p130
I3
ssVmt_A3PTFE5MJV5DU1
p131
(dp132
S'ip'
p133
(lp134
(I0
I0
tp135
asS'points'
p136
I0
sS'condition'
p137
I1
ssVmt_A1PTH9KTRO06EG
p138
(dp139
S'ip'
p140
(lp141
(I0
I0
tp142
a(V31
p143
I20
tp144
a(V12
p145
I20
tp146
a(V0
p147
I-20
tp148
a(V0
p149
I20
tp150
a(V0
p151
I20
tp152
a(V0
p153
I20
tp154
asS'code'
p155
S'C1P80R20868'
p156
sS'condition'
p157
I1
sS'points'
p158
I80
ssS'uF6NK0N8K7Q'
p159
(dp160
S'ip'
p161
(lp162
(I0
I0
tp163
asS'points'
p164
I0
sS'condition'
p165
I1
ssVmt_A2PZQDHKQDS1SV
p166
(dp167
S'ip'
p168
(lp169
(I0
I0
tp170
a(V0
p171
I14
tp172
a(V2
p173
I13
tp174
a(V0
p175
I-10
tp176
a(V0
p177
I-17
tp178
a(V0
p179
I-15
tp180
a(V0
p181
I16
tp182
asS'code'
p183
S'C0P1R4582'
p184
sS'condition'
p185
I0
sS'points'
p186
I1
ssS'u16OLLX4SRE'
p187
(dp188
S'ip'
p189
(lp190
(I0
I0
tp191
asS'points'
p192
I0
sS'condition'
p193
I1
ssVmt_A385F5ZBEV6GWD
p194
(dp195
S'ip'
p196
(lp197
(I0
I0
tp198
a(V1
p199
I20
tp200
a(V14
p201
I20
tp202
a(V12
p203
I-20
tp204
a(V2
p205
I-20
tp206
a(V0
p207
I0
tp208
a(V0
p209
I-20
tp210
asS'code'
p211
S'C0P-20R54922'
p212
sS'condition'
p213
V0
p214
sS'points'
p215
I-20
ssS'uT11AZICTS0'
p216
(dp217
S'last_claim'
p218
I20
sS'ip'
p219
(lp220
(V0
p221
I0
tp222
asS'time'
p223
(lp224
I1526677712
asS'allslider'
p225
(lp226
V{"rep":["1","0.1","0.1","0.5","0.7"],"stn":["0.2","0.4","1.0","1.0","0.6"]}
p227
asS'ans'
p228
(lp229
V4
p230
asS'condition'
p231
I1
ssVmt_A2LZ9KG42SZ3I0
p232
(dp233
S'ip'
p234
(lp235
(I0
I0
tp236
a(V0
p237
I15
tp238
a(V0
p239
I16
tp240
a(V0
p241
I-16
tp242
a(V0
p243
I13
tp244
a(V0
p245
I0
tp246
a(V0
p247
I12
tp248
a(V0
p249
I-10
tp250
a(V0
p251
I-11
tp252
a(V0
p253
I15
tp254
a(V0
p255
I17
tp256
a(V0
p257
I15
tp258
a(V0
p259
I16
tp260
a(V0
p261
I16
tp262
a(V0
p263
I14
tp264
a(V0
p265
I12
tp266
asS'code'
p267
S'C0P40R87379'
p268
sS'condition'
p269
I0
sS'points'
p270
I124
ssS'uEHZTS5FO8I'
p271
(dp272
S'ip'
p273
(lp274
(I0
I0
tp275
asS'points'
p276
I0
sS'condition'
p277
I1
ssS'uH30VFHDDH9'
p278
(dp279
S'last_claim'
p280
I32
sS'ip'
p281
(lp282
(V0
p283
I0
tp284
asS'time'
p285
(lp286
I1526678017
asS'allslider'
p287
(lp288
V{"rep":["0.0","0.1","0.4","0","0"],"stn":["-1.0","-1.0","-1.0","0.2","1.0"]}
p289
asS'ans'
p290
(lp291
V1
p292
asS'condition'
p293
I1
ssVmt_A1YX741QQSMKPS
p294
(dp295
S'ip'
p296
(lp297
(I0
I0
tp298
a(V0
p299
I20
tp300
a(V21
p301
I-10
tp302
a(V0
p303
I-20
tp304
a(V8
p305
I20
tp306
a(V0
p307
I0
tp308
a(V0
p309
I20
tp310
a(V0
p311
I10
tp312
a(V0
p313
I-20
tp314
a(V0
p315
I20
tp316
a(V0
p317
I20
tp318
a(V0
p319
I15
tp320
a(V0
p321
I5
tp322
a(V0
p323
I20
tp324
a(V0
p325
I20
tp326
a(V0
p327
I20
tp328
a(V0
p329
I15
tp330
a(V0
p331
I20
tp332
a(V0
p333
I-20
tp334
asS'code'
p335
S'C1P30R17978'
p336
sS'condition'
p337
I1
sS'points'
p338
I155
ssS'uKH3P94Y3IW'
p339
(dp340
S'ip'
p341
(lp342
(I0
I0
tp343
asS'points'
p344
I0
sS'condition'
p345
I1
ssS'uX7M2VEQKMR'
p346
(dp347
S'ip'
p348
(lp349
(I0
I0
tp350
asS'points'
p351
I0
sS'condition'
p352
I1
ssVmt_ARR1VG3SV6BLW
p353
(dp354
S'ip'
p355
(lp356
(I0
I0
tp357
a(V0
p358
I10
tp359
a(V0
p360
I20
tp361
a(V0
p362
I-7
tp363
a(V0
p364
I10
tp365
a(V0
p366
I0
tp367
a(V0
p368
I10
tp369
asS'code'
p370
S'C1P43R97664'
p371
sS'condition'
p372
I1
sS'points'
p373
I43
ssVmt_ABL3H3O3BI8ZD
p374
(dp375
S'ip'
p376
(lp377
(I0
I0
tp378
a(V7
p379
I10
tp380
a(V3
p381
I10
tp382
a(V12
p383
I-16
tp384
a(V13
p385
I14
tp386
a(V14
p387
I-12
tp388
a(V6
p389
I15
tp390
asS'code'
p391
S'C0P21R3364'
p392
sS'condition'
p393
V0
p394
sS'points'
p395
I21
ssS'u1OMKDEOTKQ'
p396
(dp397
S'ip'
p398
(lp399
(I0
I0
tp400
asS'points'
p401
I0
sS'condition'
p402
I1
ssVmt_A1OZL7QG65HABF
p403
(dp404
S'ip'
p405
(lp406
(I0
I0
tp407
a(I0
I0
tp408
a(V6
p409
I18
tp410
a(V14
p411
I19
tp412
a(V1
p413
I-19
tp414
a(V0
p415
I19
tp416
a(V0
p417
I0
tp418
a(V0
p419
I18
tp420
asS'code'
p421
S'C0P55R21018'
p422
sS'condition'
p423
V0
p424
sS'points'
p425
I55
ssS'uHNS88V7KO9'
p426
(dp427
S'last_claim'
p428
I9
sS'ip'
p429
(lp430
(V0
p431
I0
tp432
asS'ans'
p433
(lp434
V2
p435
asS'allslider'
p436
(lp437
V{"rep":["0","0"],"stn":["0.7","1.0"]}
p438
asS'time'
p439
(lp440
I1526677583
asS'condition'
p441
I1
ssVmt_APNMQHNAVRYDB
p442
(dp443
S'ip'
p444
(lp445
(I0
I0
tp446
a(V0
p447
I16
tp448
a(V0
p449
I20
tp450
a(V0
p451
I-20
tp452
a(V0
p453
I20
tp454
a(V0
p455
I0
tp456
a(V0
p457
I20
tp458
a(V0
p459
I20
tp460
a(V0
p461
I20
tp462
a(V0
p463
I20
tp464
asS'code'
p465
S'C0P56R27615'
p466
sS'condition'
p467
I0
sS'points'
p468
I116
ssVmt_A15JWEOWELTNMC
p469
(dp470
S'ip'
p471
(lp472
(I0
I0
tp473
a(I0
I0
tp474
a(V34
p475
I17
tp476
a(V32
p477
I10
tp478
a(V13
p479
I-20
tp480
a(V19
p481
I-14
tp482
a(V15
p483
I-15
tp484
a(V20
p485
I-20
tp486
a(V20
p487
I10
tp488
a(V5
p489
I-20
tp490
asS'code'
p491
S'C1P-42R12929'
p492
sS'condition'
p493
I1
sS'points'
p494
I-52
ssS'uFLB4N8CF6P'
p495
(dp496
S'ip'
p497
(lp498
(I0
I0
tp499
asS'points'
p500
I0
sS'condition'
p501
I1
ssVmt_A3NH3VJF04DBJX
p502
(dp503
S'ip'
p504
(lp505
(I0
I0
tp506
a(V0
p507
I19
tp508
a(V0
p509
I20
tp510
a(V0
p511
I-10
tp512
a(V0
p513
I-10
tp514
a(V0
p515
I20
tp516
a(V0
p517
I0
tp518
a(V0
p519
I10
tp520
a(V0
p521
I14
tp522
a(V0
p523
I-10
tp524
a(V0
p525
I20
tp526
a(V0
p527
I20
tp528
asS'code'
p529
S'C0P49R640'
p530
sS'condition'
p531
I0
sS'points'
p532
I93
ssVmt_A3A00UKGHIRCPO
p533
(dp534
S'ip'
p535
(lp536
(I0
I0
tp537
a(V0
p538
I14
tp539
a(V0
p540
I11
tp541
a(V0
p542
I-12
tp543
a(V0
p544
I15
tp545
a(V0
p546
I0
tp547
a(V0
p548
I15
tp549
asS'code'
p550
S'C1P43R43737'
p551
sS'condition'
p552
I1
sS'points'
p553
I43
ssS'uH4AHQITLKV'
p554
(dp555
S'ip'
p556
(lp557
(I0
I0
tp558
asS'points'
p559
I0
sS'condition'
p560
I1
ssS'u65ZRR9135Z'
p561
(dp562
S'last_claim'
p563
I0
sS'ip'
p564
(lp565
(I0
I0
tp566
asS'ans'
p567
(lp568
sS'allslider'
p569
(lp570
sS'time'
p571
(lp572
I1526704387
asS'condition'
p573
I1
ssS'uXZNIH0WUJ1'
p574
(dp575
S'last_claim'
p576
I13
sS'ip'
p577
(lp578
(V0
p579
I0
tp580
asS'time'
p581
(lp582
I1526677622
asS'allslider'
p583
(lp584
V{"rep":["0.4","0","0.3","0.3","0","0.2","0.9","0.7","0","0.4","0.2","0.1","0.3","0.3","0.0"],"stn":["-1.0","-0.7","-1.0","-0.7","-1.0","0.3","-1.0","-1.0","0.3","-1.0","-0.6","-1.0","-1.0","-0.6","-1.0"]}
p585
asS'ans'
p586
(lp587
V1
p588
asS'condition'
p589
I1
ssVmt_A16SAB417Y96G4
p590
(dp591
S'code'
p592
S'C0A3234512235R238'
p593
sS'last_claim'
p594
I10
sS'bonus'
p595
(lp596
I4
aI12
aI4
aI12
aI15
aI0
aI12
aI12
aI4
aI15
asS'ip'
p597
(lp598
(I0
I0
tp599
a(V6
p600
I0
tp601
a(V3
p602
I0
tp603
a(V0
p604
I0
tp605
a(V0
p606
I0
tp607
a(V0
p608
I0
tp609
a(V0
p610
I0
tp611
a(V0
p612
I0
tp613
a(V0
p614
I0
tp615
a(V0
p616
I0
tp617
a(V0
p618
I0
tp619
asS'time'
p620
(lp621
I1526679384
aI1526679394
aI1526679406
aI1526679409
aI1526679413
aI1526679416
aI1526679487
aI1526679492
aI1526679539
aI1526679544
aI1526679548
asS'allslider'
p622
(lp623
V{"rep":["0.2","0","-0.1","0","-0.5","0.4","0.6","0.2","0.6","0.3"],"stn":["0.7","-0.5","0.2","0.1","0.6","0.6","0.7","0","-0.2","-0.1"]}
p624
aV{"rep":["-0.2","-0.1","0","0","0","0","0","0","0","0"],"stn":["-0.3","0.7","0.6","-0.2","0.8","0.1","0.2","0.8","0.9","0.3"]}
p625
aV{"rep":["0","0.1","0","0","0.2","0","0.2"],"stn":["0.8","0.1","0.1","0.8","0.8","0.9","0.7"]}
p626
aV{"rep":["0","0","0","0.6","0.1","0.4","0","0"],"stn":["0.4","0.9","0.7","0.3","0.7","0.8","0.8","0.8"]}
p627
aV{"rep":["0.1","0","0","0.1","0.1","0.3","0.1","0.7"],"stn":["0.9","0.8","0.9","0.9","0.9","0.9","0.8","0.8"]}
p628
aV{"rep":["0","0","0","0.2","0","0.6","0.5","0","0.8","0"],"stn":["0.8","0.6","0.8","0.6","0.6","0.8","0.7","0.7","0.7","0.8"]}
p629
aV{"rep":["0","0.1","0.3","0.1","0.4","0.4","0.4","0","0.3"],"stn":["0.7","0.7","0.9","0.8","0.9","-0.4","0.9","0.7","0.7"]}
p630
aV{"rep":["1","0","0.1","0.7","0.2","0"],"stn":["0.6","0","0.6","0.7","0.4","0.5"]}
p631
aV{"rep":["0","0"],"stn":["0.6","0.6"]}
p632
aV{"rep":["0.1","0","0.2","0.1","0.3","0.3","0.7","0.5","1","0.7","0","0.2","0","1","1","0.3"],"stn":["0.8","0.2","0.9","0.7","0.6","0.1","0.9","0.3","0.9","0.5","0.6","0.7","0.7","0.8","0.6","0.8"]}
p633
asS'ans'
p634
(lp635
V3
p636
aV2
p637
aV3
p638
aV4
p639
aV5
p640
aV1
p641
aV2
p642
aV2
p643
aV3
p644
aV5
p645
asS'total_bonus'
p646
I90
sS'condition'
p647
I0
ssS'u5BDI9HUPMB'
p648
(dp649
S'ip'
p650
(lp651
(I0
I0
tp652
asS'points'
p653
I0
sS'condition'
p654
I1
ssVmt_A1D5KFUJ8BFRB0
p655
(dp656
S'ip'
p657
(lp658
(I0
I0
tp659
a(V0
p660
I-13
tp661
a(V0
p662
I10
tp663
a(V0
p664
I-14
tp665
a(V0
p666
I13
tp667
a(V0
p668
I13
tp669
a(V0
p670
I13
tp671
a(V0
p672
I-14
tp673
a(V0
p674
I15
tp675
a(V0
p676
I-12
tp677
a(V0
p678
I12
tp679
a(V0
p680
I-14
tp681
a(V0
p682
I15
tp683
a(V0
p684
I-14
tp685
a(V0
p686
I-13
tp687
a(V0
p688
I12
tp689
a(V0
p690
I12
tp691
a(V0
p692
I11
tp693
a(V0
p694
I-13
tp695
a(V0
p696
I10
tp697
asS'code'
p698
S'C0P22R16034'
p699
sS'condition'
p700
I0
sS'points'
p701
I29
ssVmt_A7SXWHGK8B40R
p702
(dp703
S'ip'
p704
(lp705
(I0
I0
tp706
a(V0
p707
I12
tp708
a(V0
p709
I20
tp710
a(V0
p711
I-20
tp712
a(V0
p713
I16
tp714
a(V0
p715
I14
tp716
a(V0
p717
I15
tp718
asS'code'
p719
S'C0P57R97998'
p720
sS'condition'
p721
I0
sS'points'
p722
I57
ssS'uADXFXQUPD4'
p723
(dp724
S'ip'
p725
(lp726
(I0
I0
tp727
asS'points'
p728
I0
sS'condition'
p729
I1
ssVmt_A5BMKZRGHNSRT
p730
(dp731
S'ip'
p732
(lp733
(I0
I0
tp734
a(V7
p735
I19
tp736
a(V7
p737
I19
tp738
a(V6
p739
I20
tp740
a(V4
p741
I-16
tp742
a(V7
p743
I20
tp744
a(V1
p745
I0
tp746
a(V11
p747
I18
tp748
asS'code'
p749
S'C0P80R71785'
p750
sS'condition'
p751
I0
sS'points'
p752
I80
ssS'uYPICPI3DYO'
p753
(dp754
S'last_claim'
p755
I0
sS'ip'
p756
(lp757
(I0
I0
tp758
asS'ans'
p759
(lp760
sS'allslider'
p761
(lp762
sS'time'
p763
(lp764
I1526839458
asS'condition'
p765
I1
ssVmt_A1LSTI58FIV8RD
p766
(dp767
S'ip'
p768
(lp769
(I0
I0
tp770
a(V4
p771
I-12
tp772
a(V0
p773
I-14
tp774
a(V0
p775
I-14
tp776
a(V0
p777
I10
tp778
a(V0
p779
I-12
tp780
a(V0
p781
I10
tp782
a(V0
p783
I-10
tp784
a(V0
p785
I12
tp786
a(V0
p787
I10
tp788
a(V0
p789
I16
tp790
asS'code'
p791
S'C0P-32R13660'
p792
sS'condition'
p793
I0
sS'points'
p794
I-4
ssVmt_A3FCZNB9E8K3CX
p795
(dp796
S'ip'
p797
(lp798
(I0
I0
tp799
a(V7
p800
I20
tp801
a(V10
p802
I20
tp803
a(V4
p804
I-16
tp805
a(V4
p806
I18
tp807
a(V0
p808
I0
tp809
a(V3
p810
I20
tp811
asS'code'
p812
S'C0P62R31230'
p813
sS'condition'
p814
I0
sS'points'
p815
I62
ssS'uA1T0VN2YBS'
p816
(dp817
S'last_claim'
p818
I11
sS'ip'
p819
(lp820
(V0
p821
I0
tp822
asS'time'
p823
(lp824
I1526677603
asS'allslider'
p825
(lp826
V{"rep":["1"],"stn":["0.2"]}
p827
asS'ans'
p828
(lp829
V3
p830
asS'condition'
p831
I1
ssVmt_A2CJYS92WX7HN6
p832
(dp833
S'ip'
p834
(lp835
(I0
I0
tp836
a(V0
p837
I-10
tp838
a(V0
p839
I-14
tp840
a(V0
p841
I-20
tp842
a(V0
p843
I20
tp844
a(V0
p845
I20
tp846
a(V0
p847
I20
tp848
asS'code'
p849
S'C0P16R21136'
p850
sS'condition'
p851
I0
sS'points'
p852
I16
ssS'u5ENXAATM32'
p853
(dp854
S'ip'
p855
(lp856
(I0
I0
tp857
asS'points'
p858
I0
sS'condition'
p859
I1
ssS'uFPR5M6TVDH'
p860
(dp861
S'ip'
p862
(lp863
(I0
I0
tp864
asS'points'
p865
I0
sS'condition'
p866
I1
ssVmt_ABC99912
p867
(dp868
S'ip'
p869
(lp870
(I0
I0
tp871
a(V0
p872
I10
tp873
a(V0
p874
I-13
tp875
a(V0
p876
I17
tp877
a(V0
p878
I10
tp879
a(V0
p880
I10
tp881
a(V0
p882
I16
tp883
asS'code'
p884
S'C0P50R78212'
p885
sS'condition'
p886
I0
sS'points'
p887
I50
ssVmt_A2CHDWKAYZ3P3E
p888
(dp889
S'ip'
p890
(lp891
(I0
I0
tp892
a(V6
p893
I16
tp894
a(V5
p895
I7
tp896
a(V0
p897
I-20
tp898
a(V0
p899
I10
tp900
a(V1
p901
I20
tp902
a(V6
p903
I10
tp904
a(V7
p905
I7
tp906
a(V0
p907
I-20
tp908
a(V2
p909
I-4
tp910
a(V2
p911
I20
tp912
a(V2
p913
I-4
tp914
asS'code'
p915
S'C1P43R4471'
p916
sS'condition'
p917
I1
sS'points'
p918
I42
ssVmt_A2FGP5K2VWW23G
p919
(dp920
S'ip'
p921
(lp922
(I0
I0
tp923
a(V1
p924
I18
tp925
a(V0
p926
I19
tp927
a(V0
p928
I-14
tp929
a(V0
p930
I16
tp931
a(V0
p932
I0
tp933
a(V0
p934
I18
tp935
a(V0
p936
I-15
tp937
a(V0
p938
I-18
tp939
a(V0
p940
I16
tp941
asS'code'
p942
S'C1P57R25338'
p943
sS'condition'
p944
I1
sS'points'
p945
I40
ssVmt_A3LFB7XLW00Q61
p946
(dp947
S'ip'
p948
(lp949
(I0
I0
tp950
asS'points'
p951
I0
sS'condition'
p952
I1
ssVmt_A26RO8GGTQAXGG
p953
(dp954
S'ip'
p955
(lp956
(I0
I0
tp957
a(V5
p958
I18
tp959
a(V0
p960
I16
tp961
a(V0
p962
I13
tp963
a(V0
p964
I-16
tp965
a(V0
p966
I13
tp967
a(V0
p968
I16
tp969
asS'code'
p970
S'C1P60R47906'
p971
sS'condition'
p972
I1
sS'points'
p973
I60
ssVmt_A2ADEPVGNNXNPA
p974
(dp975
S'ip'
p976
(lp977
(I0
I0
tp978
a(V2
p979
I12
tp980
a(V0
p981
I20
tp982
a(V0
p983
I-17
tp984
a(V0
p985
I13
tp986
a(V0
p987
I0
tp988
a(V0
p989
I12
tp990
a(V0
p991
I6
tp992
a(V0
p993
I-10
tp994
a(V0
p995
I15
tp996
a(V0
p997
I14
tp998
a(V0
p999
I-1
tp1000
a(V0
p1001
I-5
tp1002
a(V0
p1003
I20
tp1004
asS'code'
p1005
S'C1P40R95173'
p1006
sS'condition'
p1007
I1
sS'points'
p1008
I79
ssS'uTPVHFK6O3V'
p1009
(dp1010
S'ip'
p1011
(lp1012
(I0
I0
tp1013
asS'points'
p1014
I0
sS'condition'
p1015
I1
ssVmt_A1D2K63U3LCO3F
p1016
(dp1017
S'ip'
p1018
(lp1019
(I0
I0
tp1020
a(V15
p1021
I-20
tp1022
a(V1
p1023
I17
tp1024
a(V7
p1025
I19
tp1026
a(V4
p1027
I-10
tp1028
a(V3
p1029
I-19
tp1030
a(V2
p1031
I16
tp1032
asS'code'
p1033
S'C0P3R2345'
p1034
sS'condition'
p1035
V0
p1036
sS'points'
p1037
I3
ssVmt_AK3H5QRAROFGP
p1038
(dp1039
S'code'
p1040
S'C0A1145554515R4280'
p1041
sS'last_claim'
p1042
I10
sS'bonus'
p1043
(lp1044
I15
aI15
aI2
aI15
aI15
aI15
aI2
aI0
aI15
aI15
asS'ip'
p1045
(lp1046
(I0
I0
tp1047
a(V0
p1048
I0
tp1049
a(V0
p1050
I0
tp1051
a(V0
p1052
I0
tp1053
a(V0
p1054
I0
tp1055
a(V0
p1056
I0
tp1057
a(V0
p1058
I0
tp1059
a(V0
p1060
I0
tp1061
a(V0
p1062
I0
tp1063
a(V0
p1064
I0
tp1065
a(V0
p1066
I0
tp1067
asS'ans'
p1068
(lp1069
V1
p1070
aV1
p1071
aV4
p1072
aV5
p1073
aV5
p1074
aV5
p1075
aV4
p1076
aV5
p1077
aV1
p1078
aV5
p1079
asS'allslider'
p1080
(lp1081
V{"rep":["0.2","0.4","0.4","0","0.2","0","0","0","0.6","0.3"],"stn":["0.7","-0.5","0.2","0.1","0.6","0.6","0.7","0","-0.2","-0.1"]}
p1082
aV{"rep":["0","0","0","0","0","0","0","0","0","0"],"stn":["-0.3","0.7","0.6","-0.6","0.8","0.1","0.2","0.8","0.9","0.3"]}
p1083
aV{"rep":["0","0.1","0","0","0.2","0","0.2"],"stn":["0.8","0.1","0.1","0.8","0.8","0.9","0.7"]}
p1084
aV{"rep":["0","0","0","0.6","0.1","0.4","0","0"],"stn":["0.4","0.9","0.7","0.3","0.7","0.8","0.8","0.8"]}
p1085
aV{"rep":["0.1","0","0","0.1","0.1","0.3","0.1","0.7"],"stn":["0.9","0.8","0.9","0.9","0.9","0.9","0.8","0.8"]}
p1086
aV{"rep":["0","0","0","0.2","0","0.6","0.5","0","0.8","0"],"stn":["0.8","0.6","0.8","0.6","0.6","0.8","0.7","0.7","0.7","0.8"]}
p1087
aV{"rep":["0","0.1","0.3","0.1","0.4","0.4","0.4","0","0.3"],"stn":["0.7","0.7","0.9","0.8","0.9","-0.4","0.9","0.7","0.7"]}
p1088
aV{"rep":["1","0","0.1","0.7","0.2","0"],"stn":["0.6","0","0.6","0.7","0.4","0.5"]}
p1089
aV{"rep":["0","0"],"stn":["0.6","0.6"]}
p1090
aV{"rep":["0.1","0","0.2","0.1","0.3","0.3","0.7","0.5","1","0.7","0","0.2","0","1","1","0.3"],"stn":["0.8","0.2","0.9","0.7","0.6","0.1","0.9","0.3","0.9","0.5","0.6","0.7","0.7","0.8","0.6","0.8"]}
p1091
asS'time'
p1092
(lp1093
I1526830419
aI1526830454
aI1526830472
aI1526830506
aI1526830526
aI1526830549
aI1526830563
aI1526830614
aI1526830636
aI1526830649
aI1526830665
asS'total_bonus'
p1094
I109
sS'condition'
p1095
I0
ssVmt_A2UOJVCT74AZ9S
p1096
(dp1097
S'ip'
p1098
(lp1099
(I0
I0
tp1100
a(V2
p1101
I18
tp1102
a(V4
p1103
I20
tp1104
a(V0
p1105
I-16
tp1106
a(V0
p1107
I9
tp1108
a(V0
p1109
I0
tp1110
a(V2
p1111
I15
tp1112
a(V0
p1113
I14
tp1114
asS'code'
p1115
S'C1P46R56281'
p1116
sS'condition'
p1117
I1
sS'points'
p1118
I60
ssVmt_A1TARNH07A75CG
p1119
(dp1120
S'ip'
p1121
(lp1122
(I0
I0
tp1123
a(V2
p1124
I20
tp1125
a(V9
p1126
I4
tp1127
a(V7
p1128
I-20
tp1129
a(V4
p1130
I0
tp1131
a(V0
p1132
I-6
tp1133
a(V6
p1134
I-14
tp1135
asS'code'
p1136
S'C1P-16R80500'
p1137
sS'condition'
p1138
I1
sS'points'
p1139
I-16
ssS'u3QK4NKWJWG'
p1140
(dp1141
S'ip'
p1142
(lp1143
(I0
I0
tp1144
asS'points'
p1145
I0
sS'condition'
p1146
I1
ssVmt_A1RVMADIZE3BXK
p1147
(dp1148
S'ip'
p1149
(lp1150
(I0
I0
tp1151
a(V0
p1152
I-19
tp1153
a(V2
p1154
I-20
tp1155
a(V0
p1156
I-20
tp1157
a(V0
p1158
I20
tp1159
a(V0
p1160
I20
tp1161
a(V0
p1162
I20
tp1163
a(V0
p1164
I-20
tp1165
asS'code'
p1166
S'C1P1R71869'
p1167
sS'condition'
p1168
I1
sS'points'
p1169
I-19
ssVmt_ALTMSSCYKZS8Z
p1170
(dp1171
S'ip'
p1172
(lp1173
(I0
I0
tp1174
a(V0
p1175
I-20
tp1176
a(V0
p1177
I-14
tp1178
a(V0
p1179
I20
tp1180
a(V0
p1181
I20
tp1182
a(V0
p1183
I-20
tp1184
a(V0
p1185
I20
tp1186
asS'code'
p1187
S'C0P6R21700'
p1188
sS'condition'
p1189
I0
sS'points'
p1190
I6
ssVmt_A24U7XTFENX96C
p1191
(dp1192
S'ip'
p1193
(lp1194
(I0
I0
tp1195
a(V0
p1196
I10
tp1197
a(V0
p1198
I20
tp1199
a(V0
p1200
I-5
tp1201
a(V0
p1202
I3
tp1203
a(V0
p1204
I0
tp1205
a(V0
p1206
I2
tp1207
asS'code'
p1208
S'C1P30R92586'
p1209
sS'condition'
p1210
I1
sS'points'
p1211
I30
ssS'uJGH9VUMZV9'
p1212
(dp1213
S'ip'
p1214
(lp1215
(I0
I0
tp1216
asS'points'
p1217
I0
sS'condition'
p1218
I1
ssVmt_A3MK7F6KT80AZT
p1219
(dp1220
S'ip'
p1221
(lp1222
(I0
I0
tp1223
a(V0
p1224
I-16
tp1225
a(V3
p1226
I-20
tp1227
a(V3
p1228
I20
tp1229
a(V0
p1230
I-20
tp1231
a(V10
p1232
I-20
tp1233
a(V7
p1234
I-11
tp1235
asS'code'
p1236
S'C0P-67R36969'
p1237
sS'condition'
p1238
I0
sS'points'
p1239
I-67
ssVmt_A29Y7MCUQWQHRI
p1240
(dp1241
S'ip'
p1242
(lp1243
(I0
I0
tp1244
a(V0
p1245
I10
tp1246
a(V0
p1247
I-10
tp1248
a(V0
p1249
I-10
tp1250
a(V0
p1251
I-10
tp1252
a(V0
p1253
I10
tp1254
a(V0
p1255
I10
tp1256
a(I0
I0
tp1257
a(V0
p1258
I-10
tp1259
a(V0
p1260
I-10
tp1261
a(V0
p1262
I10
tp1263
a(V0
p1264
I-10
tp1265
a(V0
p1266
I-10
tp1267
a(V0
p1268
I-10
tp1269
a(V0
p1270
I-10
tp1271
asS'code'
p1272
S'C1P0R87384'
p1273
sS'condition'
p1274
I1
sS'points'
p1275
I-50
ssVmt_A3TM9RWWBPQBVM
p1276
(dp1277
S'ip'
p1278
(lp1279
(I0
I0
tp1280
a(V3
p1281
I-16
tp1282
a(V11
p1283
I20
tp1284
a(V0
p1285
I-20
tp1286
a(V1
p1287
I20
tp1288
a(V0
p1289
I0
tp1290
a(V0
p1291
I20
tp1292
asS'code'
p1293
S'C1P24R60096'
p1294
sS'condition'
p1295
I1
sS'points'
p1296
I24
ssVmt_AYSG3J2U3UF1Y
p1297
(dp1298
S'ip'
p1299
(lp1300
(I0
I0
tp1301
a(V0
p1302
I-14
tp1303
a(V0
p1304
I-11
tp1305
a(V0
p1306
I-10
tp1307
a(V0
p1308
I19
tp1309
a(V0
p1310
I20
tp1311
a(V0
p1312
I20
tp1313
a(V0
p1314
I-20
tp1315
a(V0
p1316
I-16
tp1317
a(V0
p1318
I-16
tp1319
asS'code'
p1320
S'C1P24R75901'
p1321
sS'condition'
p1322
I1
sS'points'
p1323
I-28
ssVmt_qwerty1
p1324
(dp1325
S'ip'
p1326
(lp1327
(I0
I0
tp1328
asS'points'
p1329
I0
sS'condition'
p1330
I1
ssS'uMINNT4M52U'
p1331
(dp1332
S'ip'
p1333
(lp1334
(I0
I0
tp1335
asS'points'
p1336
I0
sS'condition'
p1337
I1
ssS'uUX7XJELUNC'
p1338
(dp1339
S'ip'
p1340
(lp1341
(I0
I0
tp1342
asS'points'
p1343
I0
sS'condition'
p1344
I1
ssVmt_A26NGLGGFTATVN
p1345
(dp1346
S'ip'
p1347
(lp1348
(I0
I0
tp1349
a(V3
p1350
I-15
tp1351
a(V8
p1352
I-15
tp1353
a(V0
p1354
I10
tp1355
a(V0
p1356
I14
tp1357
a(V3
p1358
I-15
tp1359
a(V2
p1360
I17
tp1361
a(V1
p1362
I-12
tp1363
a(V1
p1364
I-17
tp1365
asS'code'
p1366
S'C0P-4R17756'
p1367
sS'condition'
p1368
I0
sS'points'
p1369
I-33
ssVmt_A2416IYI3FQMAG
p1370
(dp1371
S'ip'
p1372
(lp1373
(I0
I0
tp1374
a(V3
p1375
I16
tp1376
a(V9
p1377
I19
tp1378
a(V6
p1379
I12
tp1380
a(V0
p1381
I7
tp1382
a(V0
p1383
I0
tp1384
a(V0
p1385
I20
tp1386
asS'code'
p1387
S'C1P74R42437'
p1388
sS'condition'
p1389
I1
sS'points'
p1390
I74
ssVmt_APF1EAZT104LQ
p1391
(dp1392
S'code'
p1393
S'C1A3333243424R8228'
p1394
sS'last_claim'
p1395
I10
sS'bonus'
p1396
(lp1397
I4
aI4
aI4
aI4
aI2
aI12
aI4
aI2
aI12
aI12
asS'ip'
p1398
(lp1399
(I0
I0
tp1400
a(V10
p1401
I0
tp1402
a(V8
p1403
I0
tp1404
a(V0
p1405
I0
tp1406
a(V0
p1407
I0
tp1408
a(V0
p1409
I0
tp1410
a(V0
p1411
I0
tp1412
a(V0
p1413
I0
tp1414
a(V0
p1415
I0
tp1416
a(V0
p1417
I0
tp1418
a(V0
p1419
I0
tp1420
asS'ans'
p1421
(lp1422
V3
p1423
aV3
p1424
aV3
p1425
aV3
p1426
aV2
p1427
aV4
p1428
aV3
p1429
aV4
p1430
aV2
p1431
aV4
p1432
asS'allslider'
p1433
(lp1434
V{"rep":["0.2","0.4","0.4","-0.2","0.2","0","0","0","-0.2","0.3"],"stn":["-0.6","-0.4","0","0","-0.1","-0.1","0.1","-0.1","-0.4","-0.1"]}
p1435
aV{"rep":["-0.5","-0.5","0.1","-0.2","0.3","-0.2","0.1","0.1","0.3","0.7"],"stn":["-1","0.7","-0.3","-1","-0.4","-1","-0.8","-0.4","0.6","-1"]}
p1436
aV{"rep":["0","0.1","0","0","0.2","0","0.2"],"stn":["1","0.8","0.6","1","1","1","0.8"]}
p1437
aV{"rep":["0","0","0","0.6","0.1","0.4","0","0"],"stn":["1","0.6","0.4","0.8","0.2","0.8","1","1"]}
p1438
aV{"rep":["0.1","0","0","0.1","0.1","0.3","0.1","0.7"],"stn":["1","0.8","0.8","1","0.8","0.8","0.6","1"]}
p1439
aV{"rep":["0","0","0","0.2","0","0.6","0.5","0","0.8","0"],"stn":["1","1","0.6","1","1","1","1","1","0.8","1"]}
p1440
aV{"rep":["0","0.1","0.3","0.1","0.4","0.4","0.4","0","0.3"],"stn":["1","0.8","0.5","0.4","0.8","-0.6","0.8","0.8","1"]}
p1441
aV{"rep":["1","0","0.1","0.7","0.2","0"],"stn":["0.4","0.8","0.8","0.6","0.4","1"]}
p1442
aV{"rep":["0","0"],"stn":["0.7","1"]}
p1443
aV{"rep":["0.1","0","0.2","0.1","0.3","0.3","0.7","0.5","1","0.7","0","0.2","0","1","1","0.3"],"stn":["0.6","0.8","0.6","1","0.8","0.5","0.5","0","1","1","1","0.5","0.8","0.8","0.3","0.8"]}
p1444
asS'time'
p1445
(lp1446
I1526677459
aI1526677484
aI1526677503
aI1526677549
aI1526677553
aI1526677557
aI1526677561
aI1526677565
aI1526677570
aI1526677575
aI1526677581
asS'total_bonus'
p1447
I60
sS'condition'
p1448
I1
ssS'uLV4HQWBXQU'
p1449
(dp1450
S'ip'
p1451
(lp1452
(I0
I0
tp1453
asS'points'
p1454
I0
sS'condition'
p1455
I1
ssVmt_A1SOOCPS9CRCQE
p1456
(dp1457
S'ip'
p1458
(lp1459
(I0
I0
tp1460
a(V0
p1461
I-10
tp1462
a(I0
I0
tp1463
a(V0
p1464
I10
tp1465
a(I0
I0
tp1466
a(V0
p1467
I-10
tp1468
a(V0
p1469
I10
tp1470
a(V0
p1471
I10
tp1472
a(V0
p1473
I10
tp1474
a(V0
p1475
I10
tp1476
a(V0
p1477
I10
tp1478
a(V0
p1479
I14
tp1480
a(V0
p1481
I-14
tp1482
a(V0
p1483
I-10
tp1484
a(V0
p1485
I10
tp1486
a(V0
p1487
I12
tp1488
a(V0
p1489
I10
tp1490
a(V0
p1491
I-10
tp1492
asS'code'
p1493
S'C1P54R53877'
p1494
sS'condition'
p1495
I1
sS'points'
p1496
I52
ssVmt_A3CF8ULBSE8MTL
p1497
(dp1498
S'ip'
p1499
(lp1500
(I0
I0
tp1501
asS'points'
p1502
I0
sS'condition'
p1503
I0
ssVmt_A2QMHQXR8K4VJ2
p1504
(dp1505
S'code'
p1506
S'C0A3345242443R8993'
p1507
sS'last_claim'
p1508
I10
sS'bonus'
p1509
(lp1510
I4
aI4
aI2
aI15
aI2
aI12
aI12
aI2
aI2
aI4
asS'ip'
p1511
(lp1512
(I0
I0
tp1513
a(V23
p1514
I0
tp1515
a(V26
p1516
I0
tp1517
a(V16
p1518
I0
tp1519
a(V19
p1520
I0
tp1521
a(V20
p1522
I0
tp1523
a(V14
p1524
I0
tp1525
a(V13
p1526
I0
tp1527
a(V13
p1528
I0
tp1529
a(V4
p1530
I0
tp1531
a(V11
p1532
I0
tp1533
asS'ans'
p1534
(lp1535
V3
p1536
aV3
p1537
aV4
p1538
aV5
p1539
aV2
p1540
aV4
p1541
aV2
p1542
aV4
p1543
aV4
p1544
aV3
p1545
asS'allslider'
p1546
(lp1547
sS'time'
p1548
(lp1549
I1526656561
aI1526656590
aI1526656608
aI1526656620
aI1526656641
aI1526656654
aI1526656664
aI1526656676
aI1526656686
aI1526656693
aI1526656705
asS'total_bonus'
p1550
I59
sS'condition'
p1551
I0
ssS'uJ1DDFOIAVK'
p1552
(dp1553
S'ip'
p1554
(lp1555
(I0
I0
tp1556
asS'points'
p1557
I0
sS'condition'
p1558
I1
ssVmt_A3VIQ9XPOYB8K6
p1559
(dp1560
S'ip'
p1561
(lp1562
(I0
I0
tp1563
a(V0
p1564
I13
tp1565
a(V0
p1566
I20
tp1567
a(V0
p1568
I-20
tp1569
a(V0
p1570
I-20
tp1571
a(V0
p1572
I16
tp1573
a(V0
p1574
I-6
tp1575
a(V0
p1576
I20
tp1577
a(V0
p1578
I-20
tp1579
a(V0
p1580
I20
tp1581
a(V0
p1582
I20
tp1583
asS'code'
p1584
S'C0P3R18613'
p1585
sS'condition'
p1586
I0
sS'points'
p1587
I43
ssVmt_AGVUHOBSCP6YC
p1588
(dp1589
S'ip'
p1590
(lp1591
(I0
I0
tp1592
a(V0
p1593
I19
tp1594
a(V1
p1595
I16
tp1596
a(V0
p1597
I-18
tp1598
a(V0
p1599
I20
tp1600
a(V0
p1601
I0
tp1602
a(V0
p1603
I18
tp1604
asS'code'
p1605
S'C1P55R51531'
p1606
sS'condition'
p1607
I1
sS'points'
p1608
I55
ssVmt_A3FJCLBK3HF4PD
p1609
(dp1610
S'ip'
p1611
(lp1612
(I0
I0
tp1613
a(V0
p1614
I-19
tp1615
a(V0
p1616
I18
tp1617
a(V0
p1618
I-20
tp1619
a(V0
p1620
I17
tp1621
a(V0
p1622
I0
tp1623
a(V0
p1624
I20
tp1625
asS'code'
p1626
S'C0P16R12781'
p1627
sS'condition'
p1628
I0
sS'points'
p1629
I16
ssS'uV4RGR3V93X'
p1630
(dp1631
S'ip'
p1632
(lp1633
(I0
I0
tp1634
asS'points'
p1635
I0
sS'condition'
p1636
I1
ssVmt_A3G6A476XM1179
p1637
(dp1638
S'ip'
p1639
(lp1640
(I0
I0
tp1641
a(V0
p1642
I-14
tp1643
a(V1
p1644
I14
tp1645
a(V0
p1646
I14
tp1647
a(V0
p1648
I-14
tp1649
a(V0
p1650
I-14
tp1651
a(V11
p1652
I-14
tp1653
a(V0
p1654
I14
tp1655
a(V0
p1656
I13
tp1657
a(V0
p1658
I16
tp1659
a(V0
p1660
I-20
tp1661
a(V0
p1662
I-14
tp1663
a(V0
p1664
I-15
tp1665
a(V0
p1666
I14
tp1667
a(V0
p1668
I14
tp1669
a(V0
p1670
I-14
tp1671
a(V0
p1672
I-14
tp1673
a(V0
p1674
I-14
tp1675
a(V0
p1676
I14
tp1677
a(V0
p1678
I14
tp1679
a(V0
p1680
I-15
tp1681
a(V0
p1682
I16
tp1683
a(V0
p1684
I16
tp1685
a(V0
p1686
I15
tp1687
a(V0
p1688
I14
tp1689
a(V0
p1690
I-15
tp1691
a(V0
p1692
I-14
tp1693
a(V0
p1694
I14
tp1695
a(V0
p1696
I14
tp1697
a(V0
p1698
I-15
tp1699
a(V0
p1700
I-14
tp1701
a(V0
p1702
I-14
tp1703
a(V0
p1704
I10
tp1705
a(V0
p1706
I-9
tp1707
a(V0
p1708
I-20
tp1709
a(V0
p1710
I20
tp1711
a(V0
p1712
I20
tp1713
a(V0
p1714
I20
tp1715
a(V0
p1716
I20
tp1717
a(V0
p1718
I20
tp1719
a(V0
p1720
I20
tp1721
a(V0
p1722
I20
tp1723
a(I0
I0
tp1724
a(V0
p1725
I14
tp1726
a(V0
p1727
I14
tp1728
a(V0
p1729
I-14
tp1730
a(V0
p1731
I-14
tp1732
a(V0
p1733
I10
tp1734
a(V0
p1735
I-15
tp1736
a(V0
p1737
I15
tp1738
a(V0
p1739
I13
tp1740
a(V0
p1741
I14
tp1742
a(V0
p1743
I-13
tp1744
a(V0
p1745
I13
tp1746
a(V0
p1747
I-14
tp1748
a(V0
p1749
I14
tp1750
a(V0
p1751
I-20
tp1752
a(V0
p1753
I20
tp1754
a(V0
p1755
I-20
tp1756
a(V0
p1757
I-20
tp1758
a(V0
p1759
I20
tp1760
a(V0
p1761
I13
tp1762
a(V0
p1763
I15
tp1764
a(V0
p1765
I14
tp1766
a(V0
p1767
I13
tp1768
a(V0
p1769
I-13
tp1770
a(V0
p1771
I-20
tp1772
a(V0
p1773
I20
tp1774
a(V0
p1775
I15
tp1776
a(V0
p1777
I12
tp1778
a(V0
p1779
I14
tp1780
a(V0
p1781
I-13
tp1782
a(V0
p1783
I15
tp1784
a(V0
p1785
I15
tp1786
a(V0
p1787
I-20
tp1788
a(V0
p1789
I-10
tp1790
a(V0
p1791
I20
tp1792
a(V0
p1793
I-12
tp1794
a(V0
p1795
I20
tp1796
asS'code'
p1797
S'C1P-28R24867'
p1798
sS'condition'
p1799
I1
sS'points'
p1800
I218
ssVmt_A2ONILC0LZKG6Y
p1801
(dp1802
S'code'
p1803
S'C1A2144454425R4925'
p1804
sS'last_claim'
p1805
I10
sS'bonus'
p1806
(lp1807
I12
aI15
aI2
aI12
aI12
aI15
aI2
aI2
aI12
aI15
asS'ip'
p1808
(lp1809
(I0
I0
tp1810
a(V4
p1811
I0
tp1812
a(V4
p1813
I0
tp1814
a(V5
p1815
I0
tp1816
a(V1
p1817
I0
tp1818
a(V2
p1819
I0
tp1820
a(V2
p1821
I0
tp1822
a(V2
p1823
I0
tp1824
a(V6
p1825
I0
tp1826
a(V1
p1827
I0
tp1828
a(V7
p1829
I0
tp1830
asS'time'
p1831
(lp1832
I1526829369
aI1526829446
aI1526829508
aI1526829570
aI1526829613
aI1526829665
aI1526829693
aI1526829735
aI1526829772
aI1526829810
aI1526829852
asS'allslider'
p1833
(lp1834
V{"rep":["0.2","0.4","0.7","0","0.2","0","-0.2","-0.1","0.6","0.7"],"stn":["-0.6","-0.6","-0.6","0.4","-0.6","0.4","0.4","0.0","-1.0","-0.8"]}
p1835
aV{"rep":["0","-0.1","-0.1","0.2","0","0","0","0","-0.2","0"],"stn":["-1.0","0.7","-0.3","-1.0","-0.4","-1.0","-0.8","-0.4","0.6","-1.0"]}
p1836
aV{"rep":["0","0.1","-0.6","0.3","0.2","0.4","-0.1"],"stn":["1.0","0.8","0.6","1.0","1.0","1.0","0.8"]}
p1837
aV{"rep":["0","0","0","0.9","0.1","0.4","0","0"],"stn":["1.0","0.6","0.4","0.8","0.2","0.8","1.0","1.0"]}
p1838
aV{"rep":["0.1","0","0","0.1","0.1","0","0.1","0.6"],"stn":["1.0","0.8","0.8","1.0","0.8","0.8","0.6","1.0"]}
p1839
aV{"rep":["0","0","0","0.2","0.3","0.8","0.5","0","0.8","0"],"stn":["1.0","1.0","0.6","1.0","1.0","1.0","1.0","1.0","0.8","1.0"]}
p1840
aV{"rep":["0","0.1","0.1","0.1","0.4","0.4","0.4","0","0.2"],"stn":["1.0","0.8","0.5","0.4","0.8","-0.6","0.8","0.8","1.0"]}
p1841
aV{"rep":["0.6","0","0.1","0.6","0.4","0.5"],"stn":["0.4","0.8","0.8","0.6","0.4","1.0"]}
p1842
aV{"rep":["-0.2","0"],"stn":["0.7","1.0"]}
p1843
aV{"rep":["0.1","0","0.2","0.1","0","0","0.7","0.5","1","0.7","0","0.2","0.0","0","0","0.8"],"stn":["0.6","0.8","0.6","1.0","0.8","0.5","0.5","0.0","1.0","1.0","1.0","0.5","0.8","0.8","0.3","0.8"]}
p1844
asS'ans'
p1845
(lp1846
V2
p1847
aV1
p1848
aV4
p1849
aV4
p1850
aV4
p1851
aV5
p1852
aV4
p1853
aV4
p1854
aV2
p1855
aV5
p1856
asS'total_bonus'
p1857
I99
sS'condition'
p1858
I1
ssS'uIDL4NAPS3W'
p1859
(dp1860
S'ip'
p1861
(lp1862
(I0
I0
tp1863
asS'points'
p1864
I0
sS'condition'
p1865
I1
ssVmt_A4158R4Y06ZB4
p1866
(dp1867
S'ip'
p1868
(lp1869
(I0
I0
tp1870
a(V0
p1871
I-15
tp1872
a(V0
p1873
I20
tp1874
a(V0
p1875
I15
tp1876
a(V0
p1877
I-20
tp1878
a(V0
p1879
I20
tp1880
a(V0
p1881
I20
tp1882
a(V0
p1883
I-20
tp1884
a(V0
p1885
I-20
tp1886
a(V0
p1887
I-20
tp1888
a(V0
p1889
I20
tp1890
a(V0
p1891
I20
tp1892
a(V0
p1893
I20
tp1894
a(V0
p1895
I-20
tp1896
a(V0
p1897
I0
tp1898
a(V0
p1899
I20
tp1900
a(V0
p1901
I20
tp1902
a(V0
p1903
I20
tp1904
a(V0
p1905
I-20
tp1906
a(V0
p1907
I-20
tp1908
a(V0
p1909
I20
tp1910
a(V0
p1911
I-20
tp1912
a(V0
p1913
I-20
tp1914
a(V0
p1915
I-20
tp1916
a(V0
p1917
I0
tp1918
a(V0
p1919
I20
tp1920
a(V0
p1921
I-20
tp1922
a(V0
p1923
I-20
tp1924
a(V0
p1925
I20
tp1926
a(V0
p1927
I-20
tp1928
a(V0
p1929
I-20
tp1930
a(V0
p1931
I-20
tp1932
a(V0
p1933
I-20
tp1934
a(V0
p1935
I-20
tp1936
a(V0
p1937
I-20
tp1938
a(V0
p1939
I-20
tp1940
a(V0
p1941
I-20
tp1942
a(V0
p1943
I20
tp1944
a(V0
p1945
I-11
tp1946
a(V0
p1947
I11
tp1948
a(V0
p1949
I0
tp1950
asS'code'
p1951
S'C0P40R94667'
p1952
sS'condition'
p1953
I0
sS'points'
p1954
I-140
ssVmt_A1N8TKTLXV92QR
p1955
(dp1956
S'ip'
p1957
(lp1958
(I0
I0
tp1959
a(V0
p1960
I13
tp1961
a(V0
p1962
I-16
tp1963
a(V0
p1964
I-17
tp1965
a(V0
p1966
I18
tp1967
a(V0
p1968
I0
tp1969
a(V0
p1970
I19
tp1971
asS'code'
p1972
S'C0P17R73025'
p1973
sS'condition'
p1974
I0
sS'points'
p1975
I17
ssS'u0NSOGOUFJI'
p1976
(dp1977
S'last_claim'
p1978
I7
sS'ip'
p1979
(lp1980
(V0
p1981
I0
tp1982
asS'ans'
p1983
(lp1984
V3
p1985
asS'allslider'
p1986
(lp1987
V{"rep":["0","0.1","0.3","0.1","0.4","0.4","0.4","0","0.3"],"stn":["1.0","0.8","0.5","0.4","0.8","-0.6","0.8","0.8","1.0"]}
p1988
asS'time'
p1989
(lp1990
I1526677560
asS'condition'
p1991
I1
ssS'uM2FT74HGG6'
p1992
(dp1993
S'ip'
p1994
(lp1995
(I0
I0
tp1996
asS'points'
p1997
I0
sS'condition'
p1998
I1
ssS'uIONQNRDH93'
p1999
(dp2000
S'ip'
p2001
(lp2002
(I0
I0
tp2003
asS'points'
p2004
I0
sS'condition'
p2005
I1
ssVmt_A1TEVZP5DA1XYZ
p2006
(dp2007
S'ip'
p2008
(lp2009
(I0
I0
tp2010
a(V0
p2011
I-16
tp2012
a(V0
p2013
I-20
tp2014
a(V0
p2015
I6
tp2016
a(V0
p2017
I-8
tp2018
a(V0
p2019
I20
tp2020
a(V0
p2021
I12
tp2022
a(V0
p2023
I-15
tp2024
a(V0
p2025
I-18
tp2026
a(V0
p2027
I6
tp2028
a(V0
p2029
I16
tp2030
a(V0
p2031
I18
tp2032
a(V0
p2033
I-17
tp2034
a(V0
p2035
I-10
tp2036
asS'code'
p2037
S'C0P-6R75423'
p2038
sS'condition'
p2039
I0
sS'points'
p2040
I-26
ssS'u21XW5YZEXE'
p2041
(dp2042
S'last_claim'
p2043
I0
sS'ip'
p2044
(lp2045
(I0
I0
tp2046
asS'ans'
p2047
(lp2048
sS'allslider'
p2049
(lp2050
sS'time'
p2051
(lp2052
I1526664245
asS'condition'
p2053
I1
ssVmt_A37XJVQF62ZYC
p2054
(dp2055
S'code'
p2056
S'C1A1155552515R236'
p2057
sS'last_claim'
p2058
I10
sS'bonus'
p2059
(lp2060
I15
aI15
aI0
aI15
aI15
aI15
aI12
aI0
aI15
aI15
asS'ip'
p2061
(lp2062
(I0
I0
tp2063
a(V6
p2064
I0
tp2065
a(V7
p2066
I0
tp2067
a(V8
p2068
I0
tp2069
a(V13
p2070
I0
tp2071
a(V7
p2072
I0
tp2073
a(V9
p2074
I0
tp2075
a(V1
p2076
I0
tp2077
a(V9
p2078
I0
tp2079
a(V1
p2080
I0
tp2081
a(V6
p2082
I0
tp2083
asS'time'
p2084
(lp2085
I1526829419
aI1526829577
aI1526829657
aI1526829727
aI1526829780
aI1526829816
aI1526829859
aI1526829974
aI1526830027
aI1526830114
aI1526830155
asS'allslider'
p2086
(lp2087
V{"rep":["1","1","1","-1","1","-1","-0.5","0","1","1"],"stn":["-1","-1","-1","0","-1","0","0","0","-1","-1"]}
p2088
aV{"rep":["1","-1","-1","1","1","0","0","0","-1","1"],"stn":["-1","1","-1","-1","-1","-1","-0.8","-0.4","1","-1"]}
p2089
aV{"rep":["-1","1","-1","1","1","1","0.2"],"stn":["1","1","1","1","1","1","0.8"]}
p2090
aV{"rep":["1","1","-1","1","1","-1","1","1"],"stn":["1","1","1","1","1","1","1","1"]}
p2091
aV{"rep":["1","0","1","1","1","1","1","0"],"stn":["1","0.8","0.8","1","0.8","0.8","0.6","1"]}
p2092
aV{"rep":["1","0","0","0.2","1","1","1","1","1","1"],"stn":["1","1","1","1","1","1","1","1","1","1"]}
p2093
aV{"rep":["0","0.1","1","0.1","0.4","0.4","0.4","0","0.3"],"stn":["1","0.8","0.5","0.4","0.8","-0.6","0.8","0.8","1"]}
p2094
aV{"rep":["0","0","1","-0.1","1","1"],"stn":["0.4","1","1","1","1","1"]}
p2095
aV{"rep":["-1","0"],"stn":["0.7","1"]}
p2096
aV{"rep":["0.1","0","0.2","1","0.3","0.3","0.7","0.5","1","0.7","1","0.2","1","0","0","1"],"stn":["0.6","0.8","0.6","1","0.8","0.5","0.5","0","1","1","1","0.5","0.8","0.8","0.3","0.8"]}
p2097
asS'ans'
p2098
(lp2099
V1
p2100
aV1
p2101
aV5
p2102
aV5
p2103
aV5
p2104
aV5
p2105
aV2
p2106
aV5
p2107
aV1
p2108
aV5
p2109
asS'total_bonus'
p2110
I117
sS'condition'
p2111
I1
ssVmt_A1931U5JHX67RA
p2112
(dp2113
S'ip'
p2114
(lp2115
(I0
I0
tp2116
a(V30
p2117
I0
tp2118
a(V33
p2119
I5
tp2120
asS'points'
p2121
I5
sS'condition'
p2122
V1
p2123
ssS'uQ0M9D5RC9B'
p2124
(dp2125
S'ip'
p2126
(lp2127
(I0
I0
tp2128
asS'points'
p2129
I0
sS'condition'
p2130
I1
ssS'u9ADAGVQC0S'
p2131
(dp2132
S'ip'
p2133
(lp2134
(I0
I0
tp2135
asS'points'
p2136
I0
sS'condition'
p2137
I1
ssVmt_A3862RIFFUV141
p2138
(dp2139
S'ip'
p2140
(lp2141
(I0
I0
tp2142
a(V1
p2143
I18
tp2144
a(V5
p2145
I6
tp2146
a(V2
p2147
I4
tp2148
a(V0
p2149
I13
tp2150
a(V0
p2151
I6
tp2152
a(V0
p2153
I12
tp2154
asS'code'
p2155
S'C1P59R64944'
p2156
sS'condition'
p2157
I1
sS'points'
p2158
I59
ssS'uE35XPM224O'
p2159
(dp2160
S'ip'
p2161
(lp2162
(I0
I0
tp2163
asS'points'
p2164
I0
sS'condition'
p2165
I1
ssVmt_ANVXAMUEBGV8N
p2166
(dp2167
S'ip'
p2168
(lp2169
(I0
I0
tp2170
a(V0
p2171
I16
tp2172
a(V0
p2173
I15
tp2174
a(V0
p2175
I10
tp2176
a(V0
p2177
I-17
tp2178
a(V0
p2179
I0
tp2180
a(V1
p2181
I17
tp2182
asS'code'
p2183
S'C0P41R11066'
p2184
sS'condition'
p2185
I0
sS'points'
p2186
I41
ssVmt_A1JVWOBGNA6KJT
p2187
(dp2188
S'ip'
p2189
(lp2190
(I0
I0
tp2191
a(V7
p2192
I15
tp2193
a(V2
p2194
I12
tp2195
a(V1
p2196
I-18
tp2197
a(V0
p2198
I11
tp2199
a(V0
p2200
I0
tp2201
a(V0
p2202
I18
tp2203
a(V0
p2204
I-12
tp2205
asS'code'
p2206
S'C0P38R5822'
p2207
sS'condition'
p2208
I0
sS'points'
p2209
I26
ssVmt_A2IYW5W8C6224Z
p2210
(dp2211
S'ip'
p2212
(lp2213
(I0
I0
tp2214
a(V33
p2215
I20
tp2216
a(V19
p2217
I20
tp2218
a(V12
p2219
I20
tp2220
a(V16
p2221
I-20
tp2222
a(V16
p2223
I20
tp2224
a(I0
I0
tp2225
a(V2
p2226
I12
tp2227
a(V0
p2228
I12
tp2229
a(V0
p2230
I12
tp2231
a(V1
p2232
I-12
tp2233
a(V0
p2234
I-12
tp2235
a(V0
p2236
I-12
tp2237
a(V1
p2238
I12
tp2239
asS'code'
p2240
S'C0P60R88149'
p2241
sS'condition'
p2242
I0
sS'points'
p2243
I72
ssVmt_A9YY444ESHD5H
p2244
(dp2245
S'ip'
p2246
(lp2247
(I0
I0
tp2248
a(V5
p2249
I-13
tp2250
asS'points'
p2251
I-13
sS'condition'
p2252
I0
ssVmt_A1QIJ94TJ6FZ2W
p2253
(dp2254
S'ip'
p2255
(lp2256
(I0
I0
tp2257
a(V0
p2258
I-20
tp2259
a(V0
p2260
I20
tp2261
a(V0
p2262
I-20
tp2263
a(V0
p2264
I20
tp2265
a(V0
p2266
I20
tp2267
a(V0
p2268
I20
tp2269
asS'code'
p2270
S'C1P40R19766'
p2271
sS'condition'
p2272
V1
p2273
sS'points'
p2274
I40
ssVmt_A248LF7KKHXZ14
p2275
(dp2276
S'ip'
p2277
(lp2278
(I0
I0
tp2279
a(V0
p2280
I-11
tp2281
a(V0
p2282
I-20
tp2283
a(V0
p2284
I-10
tp2285
a(V0
p2286
I20
tp2287
a(V0
p2288
I20
tp2289
a(V0
p2290
I20
tp2291
a(V0
p2292
I-20
tp2293
a(V0
p2294
I-20
tp2295
a(V0
p2296
I-20
tp2297
a(V0
p2298
I20
tp2299
a(V0
p2300
I20
tp2301
asS'code'
p2302
S'C0P19R79146'
p2303
sS'condition'
p2304
I0
sS'points'
p2305
I-1
ssS'u95PYC86JJ7'
p2306
(dp2307
S'ip'
p2308
(lp2309
(I0
I0
tp2310
asS'points'
p2311
I0
sS'condition'
p2312
I1
ssVmt_AYKZ9H4BNW810
p2313
(dp2314
S'ip'
p2315
(lp2316
(I0
I0
tp2317
a(V0
p2318
I-14
tp2319
a(V0
p2320
I20
tp2321
a(V0
p2322
I-20
tp2323
a(V0
p2324
I20
tp2325
a(V0
p2326
I0
tp2327
a(V0
p2328
I20
tp2329
asS'code'
p2330
S'C0P26R78504'
p2331
sS'condition'
p2332
I0
sS'points'
p2333
I26
ssVmt_A2F6OP6C9P2PO6
p2334
(dp2335
S'ip'
p2336
(lp2337
(I0
I0
tp2338
a(V29
p2339
I11
tp2340
a(V25
p2341
I19
tp2342
a(V6
p2343
I-20
tp2344
a(V0
p2345
I17
tp2346
a(V0
p2347
I0
tp2348
a(V1
p2349
I15
tp2350
asS'code'
p2351
S'C0P42R20107'
p2352
sS'condition'
p2353
I0
sS'points'
p2354
I42
ssS'uJ91Z8F4G75'
p2355
(dp2356
S'ip'
p2357
(lp2358
(I0
I0
tp2359
asS'points'
p2360
I0
sS'condition'
p2361
I1
ssS'u8W7RLH2X13'
p2362
(dp2363
S'ip'
p2364
(lp2365
(I0
I0
tp2366
asS'points'
p2367
I0
sS'condition'
p2368
I1
ssVmt_A3PFJDD9HBQHMK
p2369
(dp2370
S'ip'
p2371
(lp2372
(I0
I0
tp2373
a(V9
p2374
I19
tp2375
a(V8
p2376
I20
tp2377
a(V6
p2378
I10
tp2379
a(V7
p2380
I10
tp2381
a(V0
p2382
I0
tp2383
a(V8
p2384
I19
tp2385
asS'code'
p2386
S'C1P78R4452'
p2387
sS'condition'
p2388
I1
sS'points'
p2389
I78
ssS'u1M3WCVNH6Y'
p2390
(dp2391
S'ip'
p2392
(lp2393
(I0
I0
tp2394
asS'points'
p2395
I0
sS'condition'
p2396
I1
ssVmt_A31BFQ3V5CLBGH
p2397
(dp2398
S'ip'
p2399
(lp2400
(I0
I0
tp2401
a(V0
p2402
I18
tp2403
a(V0
p2404
I20
tp2405
a(V0
p2406
I12
tp2407
a(V0
p2408
I17
tp2409
a(V0
p2410
I-15
tp2411
a(V0
p2412
I-12
tp2413
a(V0
p2414
I18
tp2415
asS'code'
p2416
S'C0P40R5885'
p2417
sS'condition'
p2418
I0
sS'points'
p2419
I58
ssS'uDD0ZZVF66E'
p2420
(dp2421
S'last_claim'
p2422
I12
sS'ip'
p2423
(lp2424
(V0
p2425
I0
tp2426
asS'ans'
p2427
(lp2428
V3
p2429
asS'allslider'
p2430
(lp2431
V{"rep":["0"],"stn":["0.2"]}
p2432
asS'time'
p2433
(lp2434
I1526677616
asS'condition'
p2435
I1
ssS'u2DIPIT4J5M'
p2436
(dp2437
S'last_claim'
p2438
I19
sS'ip'
p2439
(lp2440
(V0
p2441
I0
tp2442
asS'ans'
p2443
(lp2444
V2
p2445
asS'allslider'
p2446
(lp2447
V{"rep":["0.5","0","0.3"],"stn":["0.0","0.8","0.8"]}
p2448
asS'time'
p2449
(lp2450
I1526677706
asS'condition'
p2451
I1
ssVmt_A2QKM3JUFWBSMO
p2452
(dp2453
S'ip'
p2454
(lp2455
(I0
I0
tp2456
a(V2
p2457
I13
tp2458
a(V3
p2459
I15
tp2460
a(V3
p2461
I13
tp2462
a(V0
p2463
I4
tp2464
a(V1
p2465
I10
tp2466
a(V0
p2467
I12
tp2468
asS'code'
p2469
S'C1P67R37980'
p2470
sS'condition'
p2471
I1
sS'points'
p2472
I67
ssS'uPE3KXBFNVJ'
p2473
(dp2474
S'ip'
p2475
(lp2476
(I0
I0
tp2477
asS'points'
p2478
I0
sS'condition'
p2479
I1
ssVmt_b1
p2480
(dp2481
S'code'
p2482
S'C1A1234512345R1865'
p2483
sS'last_claim'
p2484
I10
sS'bonus'
p2485
(lp2486
I15
aI12
aI4
aI12
aI15
aI0
aI12
aI4
aI2
aI15
asS'ip'
p2487
(lp2488
(I0
I0
tp2489
a(V12
p2490
I0
tp2491
a(V1
p2492
I0
tp2493
a(V0
p2494
I0
tp2495
a(V0
p2496
I0
tp2497
a(V0
p2498
I0
tp2499
a(V0
p2500
I0
tp2501
a(V0
p2502
I0
tp2503
a(V0
p2504
I0
tp2505
a(V0
p2506
I0
tp2507
a(V0
p2508
I0
tp2509
asS'time'
p2510
(lp2511
I1526613994
aI1526614014
aI1526614041
aI1526614047
aI1526614049
aI1526614053
aI1526614060
aI1526614063
aI1526614066
aI1526614068
aI1526614073
asS'allslider'
p2512
(lp2513
sS'ans'
p2514
(lp2515
V1
p2516
aV2
p2517
aV3
p2518
aV4
p2519
aV5
p2520
aV1
p2521
aV2
p2522
aV3
p2523
aV4
p2524
aV5
p2525
asS'total_bonus'
p2526
I91
sS'condition'
p2527
I1
ssVmt_A1AKX1C8GCVCTP
p2528
(dp2529
S'ip'
p2530
(lp2531
(I0
I0
tp2532
a(V10
p2533
I14
tp2534
a(V0
p2535
I13
tp2536
a(V0
p2537
I-14
tp2538
a(V0
p2539
I7
tp2540
a(V0
p2541
I0
tp2542
a(V0
p2543
I10
tp2544
asS'code'
p2545
S'C0P30R16490'
p2546
sS'condition'
p2547
I0
sS'points'
p2548
I30
ssVmt_A1U0D5NB0FM6I7
p2549
(dp2550
S'ip'
p2551
(lp2552
(I0
I0
tp2553
a(V11
p2554
I-14
tp2555
a(V0
p2556
I-12
tp2557
a(V0
p2558
I10
tp2559
a(V0
p2560
I10
tp2561
a(V0
p2562
I-10
tp2563
a(V0
p2564
I10
tp2565
a(V0
p2566
I-10
tp2567
a(V0
p2568
I10
tp2569
a(V0
p2570
I10
tp2571
a(V0
p2572
I-16
tp2573
a(V0
p2574
I-13
tp2575
a(V0
p2576
I-10
tp2577
a(V0
p2578
I10
tp2579
a(V0
p2580
I10
tp2581
a(V0
p2582
I10
tp2583
a(V0
p2584
I-10
tp2585
a(V0
p2586
I10
tp2587
a(V0
p2588
I10
tp2589
a(V0
p2590
I-10
tp2591
a(V0
p2592
I-10
tp2593
a(V0
p2594
I10
tp2595
a(V0
p2596
I-10
tp2597
a(V0
p2598
I-10
tp2599
a(V0
p2600
I-10
tp2601
a(V0
p2602
I-10
tp2603
a(V0
p2604
I-10
tp2605
a(V0
p2606
I10
tp2607
a(V0
p2608
I20
tp2609
a(V0
p2610
I-10
tp2611
a(V0
p2612
I12
tp2613
a(V0
p2614
I-10
tp2615
a(V0
p2616
I-10
tp2617
a(V0
p2618
I10
tp2619
a(V0
p2620
I10
tp2621
a(V0
p2622
I-10
tp2623
a(V0
p2624
I-10
tp2625
a(V0
p2626
I-10
tp2627
a(V0
p2628
I-10
tp2629
a(V0
p2630
I-10
tp2631
asS'code'
p2632
S'C1P-6R28451'
p2633
sS'condition'
p2634
I1
sS'points'
p2635
I-73
ssVmt_A2CF2BD4Q0ZDJN
p2636
(dp2637
S'code'
p2638
S'C0A1145452515R9708'
p2639
sS'last_claim'
p2640
I10
sS'bonus'
p2641
(lp2642
I15
aI15
aI2
aI15
aI12
aI15
aI12
aI0
aI15
aI15
asS'ip'
p2643
(lp2644
(I0
I0
tp2645
a(V18
p2646
I0
tp2647
a(V19
p2648
I0
tp2649
a(V9
p2650
I0
tp2651
a(V9
p2652
I0
tp2653
a(V4
p2654
I0
tp2655
a(V4
p2656
I0
tp2657
a(V4
p2658
I0
tp2659
a(V2
p2660
I0
tp2661
a(V2
p2662
I0
tp2663
a(V3
p2664
I0
tp2665
asS'time'
p2666
(lp2667
I1526659647
aI1526659772
aI1526659850
aI1526659915
aI1526659996
aI1526660034
aI1526660069
aI1526660163
aI1526660200
aI1526660221
aI1526660248
asS'allslider'
p2668
(lp2669
sS'ans'
p2670
(lp2671
V1
p2672
aV1
p2673
aV4
p2674
aV5
p2675
aV4
p2676
aV5
p2677
aV2
p2678
aV5
p2679
aV1
p2680
aV5
p2681
asS'total_bonus'
p2682
I116
sS'condition'
p2683
I0
ssVmt_A2R2FQX11VOMYG
p2684
(dp2685
S'ip'
p2686
(lp2687
(I0
I0
tp2688
a(V11
p2689
I-15
tp2690
a(V12
p2691
I-13
tp2692
a(V9
p2693
I-10
tp2694
a(V14
p2695
I14
tp2696
a(V15
p2697
I10
tp2698
a(V14
p2699
I13
tp2700
a(V11
p2701
I-13
tp2702
a(V11
p2703
I-12
tp2704
a(V5
p2705
I-12
tp2706
a(V25
p2707
I12
tp2708
a(V2
p2709
I10
tp2710
a(V2
p2711
I14
tp2712
a(V14
p2713
I-13
tp2714
asS'code'
p2715
S'C1P-1R34959'
p2716
sS'condition'
p2717
I1
sS'points'
p2718
I-15
ssVmt_A1TGV7LT6LTIQU
p2719
(dp2720
S'ip'
p2721
(lp2722
(I0
I0
tp2723
a(V5
p2724
I18
tp2725
a(V14
p2726
I20
tp2727
a(V3
p2728
I-15
tp2729
a(V1
p2730
I13
tp2731
a(V0
p2732
I0
tp2733
a(V0
p2734
I18
tp2735
a(V0
p2736
I-13
tp2737
asS'code'
p2738
S'C1P54R72584'
p2739
sS'condition'
p2740
I1
sS'points'
p2741
I41
ssVmt_AKNI5BKXWGCDU
p2742
(dp2743
S'ip'
p2744
(lp2745
(I0
I0
tp2746
a(V19
p2747
I18
tp2748
a(V26
p2749
I-16
tp2750
a(V16
p2751
I-17
tp2752
a(V16
p2753
I17
tp2754
a(V16
p2755
I16
tp2756
a(V20
p2757
I16
tp2758
a(V17
p2759
I-17
tp2760
asS'code'
p2761
S'C1P34R11658'
p2762
sS'condition'
p2763
I1
sS'points'
p2764
I17
ssS'uVSNA89IJWE'
p2765
(dp2766
S'ip'
p2767
(lp2768
(I0
I0
tp2769
asS'points'
p2770
I0
sS'condition'
p2771
I1
ssS'uN5WIQTVDYD'
p2772
(dp2773
S'ip'
p2774
(lp2775
(I0
I0
tp2776
asS'points'
p2777
I0
sS'condition'
p2778
I1
ssVmt_A320QA9HJFUOZO
p2779
(dp2780
S'ip'
p2781
(lp2782
(I0
I0
tp2783
a(V18
p2784
I-15
tp2785
a(V13
p2786
I16
tp2787
a(V7
p2788
I6
tp2789
a(V8
p2790
I19
tp2791
a(V13
p2792
I0
tp2793
a(V17
p2794
I16
tp2795
asS'code'
p2796
S'C1P42R74134'
p2797
sS'condition'
p2798
I1
sS'points'
p2799
I42
ssVmt_A3SD02HCW68EUL
p2800
(dp2801
S'ip'
p2802
(lp2803
(I0
I0
tp2804
a(V6
p2805
I10
tp2806
a(V13
p2807
I-10
tp2808
a(V7
p2809
I-13
tp2810
a(V6
p2811
I13
tp2812
a(V3
p2813
I0
tp2814
a(V2
p2815
I10
tp2816
asS'code'
p2817
S'C0P10R63563'
p2818
sS'condition'
p2819
V0
p2820
sS'points'
p2821
I10
ssVmt_A2BK1NV14R38G4
p2822
(dp2823
S'code'
p2824
S'C0A1155555514R6107'
p2825
sS'last_claim'
p2826
I10
sS'bonus'
p2827
(lp2828
I15
aI15
aI0
aI15
aI15
aI15
aI0
aI0
aI15
aI12
asS'ip'
p2829
(lp2830
(I0
I0
tp2831
a(V8
p2832
I0
tp2833
a(V1
p2834
I0
tp2835
a(V5
p2836
I0
tp2837
a(V3
p2838
I0
tp2839
a(V3
p2840
I0
tp2841
a(V8
p2842
I0
tp2843
a(V3
p2844
I0
tp2845
a(V2
p2846
I0
tp2847
a(V0
p2848
I0
tp2849
a(V5
p2850
I0
tp2851
asS'ans'
p2852
(lp2853
V1
p2854
aV1
p2855
aV5
p2856
aV5
p2857
aV5
p2858
aV5
p2859
aV5
p2860
aV5
p2861
aV1
p2862
aV4
p2863
asS'allslider'
p2864
(lp2865
sS'time'
p2866
(lp2867
I1526663824
aI1526663994
aI1526664074
aI1526664147
aI1526664254
aI1526664324
aI1526664405
aI1526664447
aI1526664486
aI1526664549
aI1526664597
asS'total_bonus'
p2868
I102
sS'condition'
p2869
I0
ssVmt_A52FUUEDGSZT9
p2870
(dp2871
S'ip'
p2872
(lp2873
(I0
I0
tp2874
a(V2
p2875
I19
tp2876
a(V0
p2877
I20
tp2878
a(V0
p2879
I-20
tp2880
a(V0
p2881
I20
tp2882
a(V0
p2883
I0
tp2884
a(V0
p2885
I20
tp2886
a(V0
p2887
I10
tp2888
a(V0
p2889
I-20
tp2890
a(V0
p2891
I20
tp2892
a(V0
p2893
I20
tp2894
asS'code'
p2895
S'C1P59R53805'
p2896
sS'condition'
p2897
V1
p2898
sS'points'
p2899
I89
ssVmt_A15KQ2ZZ701NMK
p2900
(dp2901
S'ip'
p2902
(lp2903
(I0
I0
tp2904
a(V0
p2905
I15
tp2906
a(V0
p2907
I15
tp2908
a(V0
p2909
I-20
tp2910
a(V0
p2911
I12
tp2912
a(V0
p2913
I0
tp2914
a(V0
p2915
I12
tp2916
asS'code'
p2917
S'C1P34R83758'
p2918
sS'condition'
p2919
I1
sS'points'
p2920
I34
ssVmt_A10HOQZSWUIYHC
p2921
(dp2922
S'ip'
p2923
(lp2924
(I0
I0
tp2925
a(V12
p2926
I17
tp2927
a(V4
p2928
I-14
tp2929
a(V3
p2930
I-20
tp2931
a(V9
p2932
I-20
tp2933
a(V0
p2934
I20
tp2935
a(V0
p2936
I20
tp2937
a(V2
p2938
I-20
tp2939
a(V0
p2940
I-20
tp2941
a(V2
p2942
I-20
tp2943
a(V0
p2944
I20
tp2945
a(V0
p2946
I-20
tp2947
a(V1
p2948
I20
tp2949
a(V0
p2950
I-20
tp2951
asS'code'
p2952
S'C1P3R99563'
p2953
sS'condition'
p2954
I1
sS'points'
p2955
I-57
ssVmt_A2WWYVKGZZXBOB
p2956
(dp2957
S'ip'
p2958
(lp2959
(I0
I0
tp2960
a(V0
p2961
I10
tp2962
a(V0
p2963
I12
tp2964
a(V0
p2965
I-14
tp2966
a(V0
p2967
I14
tp2968
a(V0
p2969
I15
tp2970
a(V0
p2971
I14
tp2972
asS'code'
p2973
S'C0P51R1773'
p2974
sS'condition'
p2975
I0
sS'points'
p2976
I51
ssS'u9Z24AIR6GQ'
p2977
(dp2978
S'ip'
p2979
(lp2980
(I0
I0
tp2981
asS'points'
p2982
I0
sS'condition'
p2983
I1
ssVmt_A28AX4H70DPKKK
p2984
(dp2985
S'ip'
p2986
(lp2987
(I0
I0
tp2988
a(V1
p2989
I20
tp2990
a(V0
p2991
I20
tp2992
a(V0
p2993
I20
tp2994
a(V0
p2995
I20
tp2996
a(V0
p2997
I-20
tp2998
a(V0
p2999
I20
tp3000
a(V0
p3001
I-20
tp3002
a(V0
p3003
I-20
tp3004
a(V0
p3005
I20
tp3006
a(V0
p3007
I20
tp3008
a(V0
p3009
I20
tp3010
a(V0
p3011
I20
tp3012
a(V0
p3013
I20
tp3014
a(V0
p3015
I-20
tp3016
a(V0
p3017
I-20
tp3018
a(V0
p3019
I20
tp3020
a(V0
p3021
I20
tp3022
a(V0
p3023
I-20
tp3024
a(V0
p3025
I-20
tp3026
a(V0
p3027
I20
tp3028
a(V0
p3029
I20
tp3030
a(V0
p3031
I20
tp3032
a(V0
p3033
I20
tp3034
a(V0
p3035
I20
tp3036
a(V0
p3037
I20
tp3038
a(V0
p3039
I16
tp3040
a(V0
p3041
I20
tp3042
a(V0
p3043
I-20
tp3044
a(V0
p3045
I20
tp3046
a(V0
p3047
I20
tp3048
asS'code'
p3049
S'C1P80R10221'
p3050
sS'condition'
p3051
I1
sS'points'
p3052
I276
ssVmt_A187VXD4ETY6M2
p3053
(dp3054
S'ip'
p3055
(lp3056
(I0
I0
tp3057
a(V0
p3058
I-13
tp3059
a(V0
p3060
I13
tp3061
a(V0
p3062
I-18
tp3063
a(V0
p3064
I18
tp3065
a(V0
p3066
I0
tp3067
a(V0
p3068
I19
tp3069
a(V0
p3070
I-20
tp3071
a(V0
p3072
I-20
tp3073
asS'code'
p3074
S'C0P19R28929'
p3075
sS'condition'
p3076
I0
sS'points'
p3077
I-21
ssVmt_A27Z99O9GBOHR
p3078
(dp3079
S'ip'
p3080
(lp3081
(I0
I0
tp3082
a(V0
p3083
I16
tp3084
a(V0
p3085
I-17
tp3086
a(V0
p3087
I-15
tp3088
a(V0
p3089
I-12
tp3090
a(V0
p3091
I-20
tp3092
a(V0
p3093
I-20
tp3094
a(V0
p3095
I20
tp3096
a(V0
p3097
I20
tp3098
a(V0
p3099
I15
tp3100
a(V0
p3101
I14
tp3102
a(V0
p3103
I-15
tp3104
a(V0
p3105
I-15
tp3106
a(V0
p3107
I20
tp3108
asS'code'
p3109
S'C0P-68R38068'
p3110
sS'condition'
p3111
I0
sS'points'
p3112
I-9
ssVmt_A2GOYSTIL3LOV1
p3113
(dp3114
S'code'
p3115
S'C1A1255554425R6410'
p3116
sS'last_claim'
p3117
I10
sS'bonus'
p3118
(lp3119
I15
aI12
aI0
aI15
aI15
aI15
aI2
aI2
aI12
aI15
asS'ip'
p3120
(lp3121
(I0
I0
tp3122
a(V0
p3123
I0
tp3124
a(V0
p3125
I0
tp3126
a(V0
p3127
I0
tp3128
a(V0
p3129
I0
tp3130
a(V0
p3131
I0
tp3132
a(V0
p3133
I0
tp3134
a(V0
p3135
I0
tp3136
a(V0
p3137
I0
tp3138
a(V0
p3139
I0
tp3140
a(V0
p3141
I0
tp3142
asS'time'
p3143
(lp3144
I1526829931
aI1526829976
aI1526830007
aI1526830041
aI1526830074
aI1526830098
aI1526830133
aI1526830160
aI1526830176
aI1526830197
aI1526830211
asS'allslider'
p3145
(lp3146
V{"rep":["0.2","0.4","0.4","0","0.2","0","0","0","0.6","0.3"],"stn":["-0.6","-0.6","-0.6","0.4","-0.6","0.4","0.4","0","-1","-0.8"]}
p3147
aV{"rep":["0","0","0","0","0","0","0","0","0","0"],"stn":["-1","0.7","-0.3","-1","-0.4","-1","-0.8","-0.4","0.6","-1"]}
p3148
aV{"rep":["0","0.1","0","0","0.2","0","0.2"],"stn":["1","0.8","0.6","1","1","1","0.8"]}
p3149
aV{"rep":["0","0","0","0.6","0.1","0.4","0","0"],"stn":["1","0.6","0.4","0.8","0.2","0.8","1","1"]}
p3150
aV{"rep":["0.1","0","0","0.1","0.1","0.3","0.1","0.7"],"stn":["1","0.8","0.8","1","0.8","0.8","0.6","1"]}
p3151
aV{"rep":["0","0","0","0.2","0","0.6","0.5","0","0.8","0"],"stn":["1","1","0.6","1","1","1","1","1","0.8","1"]}
p3152
aV{"rep":["0","0.1","0.3","0.1","0.4","0.4","0.4","0","0.3"],"stn":["1","0.8","0.5","0.4","0.8","-0.6","0.8","0.8","1"]}
p3153
aV{"rep":["1","0","0.1","0.7","0.2","0"],"stn":["0.4","0.8","0.8","0.6","0.4","1"]}
p3154
aV{"rep":["0","0"],"stn":["0.7","1"]}
p3155
aV{"rep":["0.1","0","0.2","0.1","0.3","0.3","0.7","0.5","1","0.7","0","0.2","0","1","1","0.3"],"stn":["0.6","0.8","0.6","1","0.8","0.5","0.5","0","1","1","1","0.5","0.8","0.8","0.3","0.8"]}
p3156
asS'ans'
p3157
(lp3158
V1
p3159
aV2
p3160
aV5
p3161
aV5
p3162
aV5
p3163
aV5
p3164
aV4
p3165
aV4
p3166
aV2
p3167
aV5
p3168
asS'total_bonus'
p3169
I103
sS'condition'
p3170
I1
ssVmt_ATIO095Q8ZFH
p3171
(dp3172
S'ip'
p3173
(lp3174
(I0
I0
tp3175
a(I0
I0
tp3176
a(V20
p3177
I-13
tp3178
asS'points'
p3179
I-13
sS'condition'
p3180
I0
ssS'uU5NDPVZIOG'
p3181
(dp3182
S'ip'
p3183
(lp3184
(I0
I0
tp3185
asS'points'
p3186
I0
sS'condition'
p3187
I1
ssS'uZU1AY9OUVJ'
p3188
(dp3189
S'ip'
p3190
(lp3191
(I0
I0
tp3192
asS'points'
p3193
I0
sS'condition'
p3194
I1
ssVmt_A1DT85NV46PRGD
p3195
(dp3196
S'ip'
p3197
(lp3198
(I0
I0
tp3199
a(V28
p3200
I16
tp3201
a(V31
p3202
I20
tp3203
a(V15
p3204
I-13
tp3205
a(V6
p3206
I17
tp3207
a(V0
p3208
I0
tp3209
a(V6
p3210
I20
tp3211
asS'code'
p3212
S'C0P60R75667'
p3213
sS'condition'
p3214
I0
sS'points'
p3215
I60
ssVmt_A27CB6JIC5MZFR
p3216
(dp3217
S'code'
p3218
S'C0A3244445335R9516'
p3219
sS'last_claim'
p3220
I10
sS'bonus'
p3221
(lp3222
I4
aI12
aI2
aI12
aI12
aI12
aI0
aI4
aI4
aI15
asS'ip'
p3223
(lp3224
(I0
I0
tp3225
a(V2
p3226
I0
tp3227
a(V0
p3228
I0
tp3229
a(V0
p3230
I0
tp3231
a(V0
p3232
I0
tp3233
a(V0
p3234
I0
tp3235
a(V0
p3236
I0
tp3237
a(V0
p3238
I0
tp3239
a(V0
p3240
I0
tp3241
a(V0
p3242
I0
tp3243
a(V0
p3244
I0
tp3245
asS'ans'
p3246
(lp3247
V3
p3248
aV2
p3249
aV4
p3250
aV4
p3251
aV4
p3252
aV4
p3253
aV5
p3254
aV3
p3255
aV3
p3256
aV5
p3257
asS'allslider'
p3258
(lp3259
sS'time'
p3260
(lp3261
I1526656662
aI1526656743
aI1526656771
aI1526656795
aI1526656809
aI1526656817
aI1526656831
aI1526656844
aI1526656855
aI1526656865
aI1526656873
asS'total_bonus'
p3262
I77
sS'condition'
p3263
I0
ssS'uT3Y0KE3ON3'
p3264
(dp3265
S'ip'
p3266
(lp3267
(I0
I0
tp3268
asS'points'
p3269
I0
sS'condition'
p3270
I1
ssVmt_A3O7X46E3REM7I
p3271
(dp3272
S'ip'
p3273
(lp3274
(I0
I0
tp3275
a(V12
p3276
I17
tp3277
a(V7
p3278
I20
tp3279
a(V2
p3280
I-15
tp3281
a(V0
p3282
I20
tp3283
a(V0
p3284
I0
tp3285
a(V0
p3286
I20
tp3287
asS'code'
p3288
S'C1P62R92557'
p3289
sS'condition'
p3290
I1
sS'points'
p3291
I62
ssVmt_AHKRGPN5D3I2G
p3292
(dp3293
S'ip'
p3294
(lp3295
(I0
I0
tp3296
a(V0
p3297
I-20
tp3298
a(V0
p3299
I16
tp3300
a(V0
p3301
I20
tp3302
a(V0
p3303
I12
tp3304
a(V0
p3305
I20
tp3306
a(V0
p3307
I18
tp3308
a(I0
I0
tp3309
asS'code'
p3310
S'C1P66R40175'
p3311
sS'condition'
p3312
I1
sS'points'
p3313
I66
ssVmt_A2SSTHMYQU3ITB
p3314
(dp3315
S'code'
p3316
S'C0A3443434435R4310'
p3317
sS'last_claim'
p3318
I10
sS'bonus'
p3319
(lp3320
I4
aI2
aI2
aI4
aI12
aI4
aI2
aI2
aI4
aI15
asS'ip'
p3321
(lp3322
(I0
I0
tp3323
a(V0
p3324
I0
tp3325
a(V0
p3326
I0
tp3327
a(V0
p3328
I0
tp3329
a(V0
p3330
I0
tp3331
a(V0
p3332
I0
tp3333
a(V0
p3334
I0
tp3335
a(V0
p3336
I0
tp3337
a(V0
p3338
I0
tp3339
a(V0
p3340
I0
tp3341
a(V0
p3342
I0
tp3343
asS'ans'
p3344
(lp3345
V3
p3346
aV4
p3347
aV4
p3348
aV3
p3349
aV4
p3350
aV3
p3351
aV4
p3352
aV4
p3353
aV3
p3354
aV5
p3355
asS'allslider'
p3356
(lp3357
V{"rep":["0.2","0.4","0.4","0","0.2","0","0","0","0.6","0.3"],"stn":["0.7","-0.5","0.2","0.1","0.6","0.6","0.7","0","-0.2","-0.1"]}
p3358
aV{"rep":["0","0","0","0","0","0","0","0","0","0"],"stn":["-0.3","0.7","0.6","-0.6","0.8","0.1","0.2","0.8","0.9","0.3"]}
p3359
aV{"rep":["0","0.1","0","0","0.2","0","0.2"],"stn":["0.8","0.1","0.1","0.8","0.8","0.9","0.7"]}
p3360
aV{"rep":["0","0","0","0.6","0.1","0.4","0","0"],"stn":["0.4","0.9","0.7","0.3","0.7","0.8","0.8","0.8"]}
p3361
aV{"rep":["0.1","0","0","0.1","0.1","0.3","0.1","0.7"],"stn":["0.9","0.8","0.9","0.9","0.9","0.9","0.8","0.8"]}
p3362
aV{"rep":["0","0","0","0.2","0","0.6","0.5","0","0.8","0"],"stn":["0.8","0.6","0.8","0.6","0.6","0.8","0.7","0.7","0.7","0.8"]}
p3363
aV{"rep":["0","0.1","0.3","0.1","0.4","0.4","0.4","0","0.3"],"stn":["0.7","0.7","0.9","0.8","0.9","-0.4","0.9","0.7","0.7"]}
p3364
aV{"rep":["1","0","0.1","0.7","0.2","0"],"stn":["0.6","0","0.6","0.7","0.4","0.5"]}
p3365
aV{"rep":["0","0"],"stn":["0.6","0.6"]}
p3366
aV{"rep":["0.1","0","0.2","0.1","0.3","0.3","0.7","0.5","1","0.7","0","0.2","0","1","1","0.3"],"stn":["0.8","0.2","0.9","0.7","0.6","0.1","0.9","0.3","0.9","0.5","0.6","0.7","0.7","0.8","0.6","0.8"]}
p3367
asS'time'
p3368
(lp3369
I1526831424
aI1526831448
aI1526831456
aI1526831471
aI1526831480
aI1526831497
aI1526831505
aI1526831514
aI1526831522
aI1526831529
aI1526831541
asS'total_bonus'
p3370
I51
sS'condition'
p3371
I0
ssVmt_A4T50ODN6SGNR
p3372
(dp3373
S'ip'
p3374
(lp3375
(I0
I0
tp3376
a(V16
p3377
I20
tp3378
a(V15
p3379
I20
tp3380
a(V13
p3381
I-20
tp3382
a(V1
p3383
I20
tp3384
a(V0
p3385
I0
tp3386
a(V0
p3387
I20
tp3388
asS'code'
p3389
S'C0P60R23351'
p3390
sS'condition'
p3391
I0
sS'points'
p3392
I60
ssVmt_AJFVK3O1D7SPE
p3393
(dp3394
S'ip'
p3395
(lp3396
(I0
I0
tp3397
a(V2
p3398
I13
tp3399
a(V17
p3400
I15
tp3401
a(V2
p3402
I-15
tp3403
a(V0
p3404
I-5
tp3405
a(V0
p3406
I0
tp3407
a(V0
p3408
I13
tp3409
a(V0
p3410
I-5
tp3411
asS'code'
p3412
S'C1P21R29498'
p3413
sS'condition'
p3414
I1
sS'points'
p3415
I16
ssVmt_A1AF25FCVKC87X
p3416
(dp3417
S'ip'
p3418
(lp3419
(I0
I0
tp3420
a(V1
p3421
I19
tp3422
a(V0
p3423
I16
tp3424
a(V0
p3425
I-17
tp3426
a(V0
p3427
I14
tp3428
a(V0
p3429
I-13
tp3430
a(V0
p3431
I14
tp3432
asS'code'
p3433
S'C0P33R49052'
p3434
sS'condition'
p3435
I0
sS'points'
p3436
I33
ssS'uWNT9SKX9N1'
p3437
(dp3438
S'ip'
p3439
(lp3440
(I0
I0
tp3441
asS'points'
p3442
I0
sS'condition'
p3443
I1
ssS'uBP3DZDGUO8'
p3444
(dp3445
S'last_claim'
p3446
I31
sS'ip'
p3447
(lp3448
(V0
p3449
I0
tp3450
asS'time'
p3451
(lp3452
I1526678008
asS'allslider'
p3453
(lp3454
V{"rep":["0.7","0.6","0.9","0.2","0","0.7","1"],"stn":["1.0","1.0","1.0","1.0","1.0","1.0","1.0"]}
p3455
asS'ans'
p3456
(lp3457
V4
p3458
asS'condition'
p3459
I1
ssVmt_ABC123XYZ
p3460
(dp3461
S'ip'
p3462
(lp3463
(I0
I0
tp3464
a(V1
p3465
I-14
tp3466
asS'points'
p3467
I-14
sS'condition'
p3468
I0
ssVmt_A1CA46R2A6TV9W
p3469
(dp3470
S'ip'
p3471
(lp3472
(I0
I0
tp3473
asS'points'
p3474
I0
sS'condition'
p3475
I1
ssVmt_A1SNC8UL8YFRH5
p3476
(dp3477
S'ip'
p3478
(lp3479
(I0
I0
tp3480
a(V3
p3481
I18
tp3482
a(V0
p3483
I20
tp3484
a(V0
p3485
I-17
tp3486
a(V0
p3487
I20
tp3488
a(V0
p3489
I0
tp3490
a(V0
p3491
I19
tp3492
a(V0
p3493
I6
tp3494
a(V0
p3495
I-15
tp3496
a(V0
p3497
I14
tp3498
a(V0
p3499
I20
tp3500
a(V0
p3501
I10
tp3502
a(V0
p3503
I12
tp3504
a(V4
p3505
I20
tp3506
a(V1
p3507
I17
tp3508
a(V0
p3509
I13
tp3510
a(V0
p3511
I10
tp3512
a(V0
p3513
I20
tp3514
asS'code'
p3515
S'C1P60R9171'
p3516
sS'condition'
p3517
I1
sS'points'
p3518
I187
ssVmt_A1SYD7ZZXEXKD6
p3519
(dp3520
S'code'
p3521
S'C0A2244554535R6898'
p3522
sS'last_claim'
p3523
I10
sS'bonus'
p3524
(lp3525
I12
aI12
aI2
aI12
aI15
aI15
aI2
aI0
aI4
aI15
asS'ip'
p3526
(lp3527
(I0
I0
tp3528
a(V0
p3529
I0
tp3530
a(V0
p3531
I0
tp3532
a(V0
p3533
I0
tp3534
a(V0
p3535
I0
tp3536
a(V0
p3537
I0
tp3538
a(V0
p3539
I0
tp3540
a(V0
p3541
I0
tp3542
a(V0
p3543
I0
tp3544
a(V0
p3545
I0
tp3546
a(V0
p3547
I0
tp3548
asS'time'
p3549
(lp3550
I1526677398
aI1526677404
aI1526677412
aI1526677416
aI1526677424
aI1526677427
aI1526677432
aI1526677438
aI1526677444
aI1526677449
aI1526677457
asS'allslider'
p3551
(lp3552
V{"rep":["0.2","0.4","0.4","0","0.2","0","0","0","0.6","0.3"],"stn":["0.7","-0.5","0.2","0.1","0.6","0.6","0.7","0","-0.2","-0.1"]}
p3553
aV{"rep":["0","0","0","0","0","0","0","0","0","0"],"stn":["-0.3","0.7","0.6","-0.6","0.8","0.1","0.2","0.8","0.9","0.3"]}
p3554
aV{"rep":["0","0.1","0","0","0.2","0","0.2"],"stn":["0.8","0.1","0.1","0.8","0.8","0.9","0.7"]}
p3555
aV{"rep":["0","0","0","0.6","0.1","0.4","0","0"],"stn":["0.4","0.9","0.7","0.3","0.7","0.8","0.8","0.8"]}
p3556
aV{"rep":["0.1","0","0","0.1","0.1","0.3","0.1","0.7"],"stn":["0.9","0.8","0.9","0.9","0.9","0.9","0.8","0.8"]}
p3557
aV{"rep":["0","0","0","0.2","0","0.6","0.5","0","0.8","0"],"stn":["0.8","0.6","0.8","0.6","0.6","0.8","0.7","0.7","0.7","0.8"]}
p3558
aV{"rep":["0","0.1","0.3","0.1","0.4","0.4","0.4","0","0.3"],"stn":["0.7","0.7","0.9","0.8","0.9","-0.4","0.9","0.7","0.7"]}
p3559
aV{"rep":["1","0","0.1","0.7","0.2","0"],"stn":["0.6","0","0.6","0.7","0.4","0.5"]}
p3560
aV{"rep":["0","0"],"stn":["0.6","0.6"]}
p3561
aV{"rep":["0.1","0","0.2","0.1","0.3","0.3","0.7","0.5","1","0.7","0","0.2","0","1","1","0.3"],"stn":["0.8","0.2","0.9","0.7","0.6","0.1","0.9","0.3","0.9","0.5","0.6","0.7","0.7","0.8","0.6","0.8"]}
p3562
asS'ans'
p3563
(lp3564
V2
p3565
aV2
p3566
aV4
p3567
aV4
p3568
aV5
p3569
aV5
p3570
aV4
p3571
aV5
p3572
aV3
p3573
aV5
p3574
asS'total_bonus'
p3575
I89
sS'condition'
p3576
I0
ssS'uIZ25P4PZDQ'
p3577
(dp3578
S'ip'
p3579
(lp3580
(I0
I0
tp3581
asS'points'
p3582
I0
sS'condition'
p3583
I1
ssVmt_A2M3KQ9CKP7YW
p3584
(dp3585
S'code'
p3586
S'C1A1214542415R5851'
p3587
sS'last_claim'
p3588
I10
sS'bonus'
p3589
(lp3590
I15
aI12
aI15
aI12
aI15
aI12
aI12
aI2
aI15
aI15
asS'ip'
p3591
(lp3592
(I0
I0
tp3593
a(V21
p3594
I0
tp3595
a(V0
p3596
I0
tp3597
a(V0
p3598
I0
tp3599
a(V0
p3600
I0
tp3601
a(V0
p3602
I0
tp3603
a(V0
p3604
I0
tp3605
a(V0
p3606
I0
tp3607
a(V0
p3608
I0
tp3609
a(V0
p3610
I0
tp3611
a(V0
p3612
I0
tp3613
asS'time'
p3614
(lp3615
I1526833523
aI1526833709
aI1526833737
aI1526833756
aI1526833770
aI1526833785
aI1526833814
aI1526833828
aI1526833840
aI1526833853
aI1526833872
asS'allslider'
p3616
(lp3617
V{"rep":["0.6","0.6","0.6","0.2","0.4","0.4","0.4","0.2","0.8","-0.5"],"stn":["-0.8","-0.9","-0.8","-0.8","-0.6","-0.7","-0.7","-0.7","-0.9","-0.9"]}
p3618
aV{"rep":["0","0","0","0","0","0","0","0","0","0"],"stn":["-1","0.7","-0.3","-1","-0.4","-1","-0.8","-0.4","0.6","-1"]}
p3619
aV{"rep":["0","0.1","0","0","0.2","0","0.2"],"stn":["1","0.8","0.6","1","1","1","0.8"]}
p3620
aV{"rep":["0","0","0","0.6","0.1","0.4","0","0"],"stn":["1","0.6","0.4","0.8","0.2","0.8","1","1"]}
p3621
aV{"rep":["0.1","0","0","0.1","0.1","0.3","0.1","0.7"],"stn":["1","0.8","0.8","1","0.8","0.8","0.6","1"]}
p3622
aV{"rep":["0","0","0","0.2","0","0.6","0.5","0","0.8","0"],"stn":["1","1","0.6","1","1","1","1","1","0.8","1"]}
p3623
aV{"rep":["0","0.1","0.3","0.1","0.4","0.4","0.4","0","0.3"],"stn":["1","0.8","0.5","0.4","0.8","-0.6","0.8","0.8","1"]}
p3624
aV{"rep":["1","0","0.1","0.7","0.2","0"],"stn":["0.4","0.8","0.8","0.6","0.4","1"]}
p3625
aV{"rep":["0","0"],"stn":["0.7","1"]}
p3626
aV{"rep":["0.1","0","0.2","0.1","0.3","0.3","0.7","0.5","1","0.7","0","0.2","0","1","1","0.3"],"stn":["0.6","0.8","0.6","1","0.8","0.5","0.5","0","1","1","1","0.5","0.8","0.8","0.3","0.8"]}
p3627
asS'ans'
p3628
(lp3629
V1
p3630
aV2
p3631
aV1
p3632
aV4
p3633
aV5
p3634
aV4
p3635
aV2
p3636
aV4
p3637
aV1
p3638
aV5
p3639
asS'total_bonus'
p3640
I125
sS'condition'
p3641
I1
ssVmt_A1OKNQ2JEXW34Q
p3642
(dp3643
S'ip'
p3644
(lp3645
(I0
I0
tp3646
asS'points'
p3647
I0
sS'condition'
p3648
I1
ssS'uDZUEOTAY5V'
p3649
(dp3650
S'ip'
p3651
(lp3652
(I0
I0
tp3653
asS'points'
p3654
I0
sS'condition'
p3655
I1
ssVmt_A1USR9JCAMDGM3
p3656
(dp3657
S'ip'
p3658
(lp3659
(I0
I0
tp3660
a(V24
p3661
I-20
tp3662
a(V18
p3663
I-20
tp3664
a(V8
p3665
I-20
tp3666
a(V4
p3667
I-20
tp3668
a(V0
p3669
I20
tp3670
a(V0
p3671
I-20
tp3672
a(V2
p3673
I20
tp3674
a(V0
p3675
I-20
tp3676
a(V0
p3677
I-20
tp3678
asS'code'
p3679
S'C1P-80R16030'
p3680
sS'condition'
p3681
I1
sS'points'
p3682
I-100
ssS'uMZ1064ZVF5'
p3683
(dp3684
S'last_claim'
p3685
I33
sS'ip'
p3686
(lp3687
(V0
p3688
I0
tp3689
asS'ans'
p3690
(lp3691
V4
p3692
asS'allslider'
p3693
(lp3694
V{"rep":["0.2","0.0","0","0.2","0.1"],"stn":["0.8","0.8","0.8","0.8","0.8"]}
p3695
asS'time'
p3696
(lp3697
I1526678026
asS'condition'
p3698
I1
ssS'uBV24YH6CGM'
p3699
(dp3700
S'ip'
p3701
(lp3702
(I0
I0
tp3703
asS'points'
p3704
I0
sS'condition'
p3705
I1
ssS'u1KI9V12D01'
p3706
(dp3707
S'ip'
p3708
(lp3709
(I0
I0
tp3710
asS'points'
p3711
I0
sS'condition'
p3712
I1
ssS'uRIOKPPWABL'
p3713
(dp3714
S'ip'
p3715
(lp3716
(I0
I0
tp3717
asS'points'
p3718
I0
sS'condition'
p3719
I1
ssS'uKFKDV21691'
p3720
(dp3721
S'ip'
p3722
(lp3723
(I0
I0
tp3724
asS'points'
p3725
I0
sS'condition'
p3726
I1
ssVmt_A33WNXJEHS9DDP
p3727
(dp3728
S'ip'
p3729
(lp3730
(I0
I0
tp3731
a(V0
p3732
I-20
tp3733
a(V0
p3734
I-20
tp3735
a(V0
p3736
I20
tp3737
a(V0
p3738
I20
tp3739
a(V0
p3740
I20
tp3741
a(V0
p3742
I20
tp3743
asS'code'
p3744
S'C0P40R38178'
p3745
sS'condition'
p3746
I0
sS'points'
p3747
I40
ssVmt_A3B2H4HGSP6JCF
p3748
(dp3749
S'ip'
p3750
(lp3751
(I0
I0
tp3752
a(V0
p3753
I-12
tp3754
a(V0
p3755
I-10
tp3756
a(V0
p3757
I9
tp3758
a(V0
p3759
I15
tp3760
a(V0
p3761
I20
tp3762
a(V0
p3763
I20
tp3764
asS'code'
p3765
S'C0P42R62734'
p3766
sS'condition'
p3767
I0
sS'points'
p3768
I42
ssVmt_A27NBGO9FXJS8Q
p3769
(dp3770
S'ip'
p3771
(lp3772
(I0
I0
tp3773
asS'points'
p3774
I0
sS'condition'
p3775
I1
ssVmt_A2MWOC8THMPE6C
p3776
(dp3777
S'ip'
p3778
(lp3779
(I0
I0
tp3780
a(V0
p3781
I20
tp3782
a(V0
p3783
I20
tp3784
a(V0
p3785
I10
tp3786
a(V0
p3787
I-10
tp3788
a(V0
p3789
I-10
tp3790
a(V0
p3791
I10
tp3792
asS'code'
p3793
S'C1P40R26627'
p3794
sS'condition'
p3795
I1
sS'points'
p3796
I40
ssVmt_A1BIN5R8FF4FQR
p3797
(dp3798
S'ip'
p3799
(lp3800
(I0
I0
tp3801
a(V0
p3802
I-16
tp3803
a(V0
p3804
I18
tp3805
a(V1
p3806
I14
tp3807
a(V2
p3808
I17
tp3809
a(V2
p3810
I19
tp3811
a(V3
p3812
I20
tp3813
asS'code'
p3814
S'C0P72R75590'
p3815
sS'condition'
p3816
V0
p3817
sS'points'
p3818
I72
ssS'uMXK8I374D8'
p3819
(dp3820
S'last_claim'
p3821
I29
sS'ip'
p3822
(lp3823
(V0
p3824
I0
tp3825
asS'ans'
p3826
(lp3827
V4
p3828
asS'allslider'
p3829
(lp3830
V{"rep":["0.3","0.0","0.1","0.1"],"stn":["0.8","0.4","0.6","0.4"]}
p3831
asS'time'
p3832
(lp3833
I1526677897
asS'condition'
p3834
I1
ssVmt_A3BYUMQTYHXWZY
p3835
(dp3836
S'ip'
p3837
(lp3838
(I0
I0
tp3839
a(V6
p3840
I18
tp3841
a(V10
p3842
I18
tp3843
a(V1
p3844
I-13
tp3845
a(V1
p3846
I20
tp3847
a(V0
p3848
I0
tp3849
a(V0
p3850
I18
tp3851
asS'code'
p3852
S'C1P61R3012'
p3853
sS'condition'
p3854
I1
sS'points'
p3855
I61
ssVmt_ASI2B6A3Y556Z
p3856
(dp3857
S'ip'
p3858
(lp3859
(I0
I0
tp3860
a(V0
p3861
I14
tp3862
a(V0
p3863
I18
tp3864
a(V0
p3865
I-5
tp3866
a(V0
p3867
I15
tp3868
a(V0
p3869
I0
tp3870
a(V0
p3871
I17
tp3872
asS'code'
p3873
S'C0P59R88582'
p3874
sS'condition'
p3875
I0
sS'points'
p3876
I59
ssVmt_A2XUG3O61RBUKQ
p3877
(dp3878
S'ip'
p3879
(lp3880
(I0
I0
tp3881
a(V4
p3882
I17
tp3883
a(V9
p3884
I19
tp3885
a(V1
p3886
I-20
tp3887
a(V0
p3888
I20
tp3889
a(V0
p3890
I0
tp3891
a(V0
p3892
I20
tp3893
asS'code'
p3894
S'C1P56R37468'
p3895
sS'condition'
p3896
I1
sS'points'
p3897
I56
ssS'u9I04E5ZTZJ'
p3898
(dp3899
S'ip'
p3900
(lp3901
(I0
I0
tp3902
asS'points'
p3903
I0
sS'condition'
p3904
I1
ssS'uI786OBCUIF'
p3905
(dp3906
S'last_claim'
p3907
I10
sS'ip'
p3908
(lp3909
(V0
p3910
I0
tp3911
asS'time'
p3912
(lp3913
I1526677594
asS'allslider'
p3914
(lp3915
V{"rep":["0.1","0","0.2","0.1","0.3","0.3","0.7","0.5","1","0.7","0","0.2","0.0","1","1","0.3"],"stn":["0.6","0.8","0.6","1.0","0.8","0.5","0.5","0.0","1.0","1.0","1.0","0.5","0.8","0.8","0.3","0.8"]}
p3916
asS'ans'
p3917
(lp3918
V5
p3919
asS'condition'
p3920
I1
ssVmt_A15HCM2AMX95Z9
p3921
(dp3922
S'last_claim'
p3923
I2
sS'ip'
p3924
(lp3925
(I0
I0
tp3926
a(V3
p3927
I0
tp3928
a(V18
p3929
I0
tp3930
asS'ans'
p3931
(lp3932
V4
p3933
aV2
p3934
asS'allslider'
p3935
(lp3936
V{"rep":["1","-1","1","-1","0.2","-1","-1","-1","-1","1"],"stn":["1","-1","1","-1","-1","-1","-1","-1","-1","1"]}
p3937
aV{"rep":["-1","-1","-1","-1","-1","-1","-1","-1","-1","-1"],"stn":["-1","-1","-1","-1","-1","-1","-1","-1","-1","-1"]}
p3938
asS'time'
p3939
(lp3940
I1526829261
aI1526829386
aI1526829435
asS'condition'
p3941
I1
ssVmt_AN4D1WRTKLUYZ
p3942
(dp3943
S'ip'
p3944
(lp3945
(I0
I0
tp3946
a(V11
p3947
I-16
tp3948
a(V11
p3949
I-16
tp3950
a(V7
p3951
I-15
tp3952
a(V2
p3953
I10
tp3954
a(V2
p3955
I10
tp3956
a(V12
p3957
I-10
tp3958
a(V12
p3959
I-10
tp3960
a(I0
I0
tp3961
a(V13
p3962
I16
tp3963
a(V8
p3964
I15
tp3965
a(V9
p3966
I-14
tp3967
a(V8
p3968
I-15
tp3969
a(V6
p3970
I-17
tp3971
a(V5
p3972
I16
tp3973
a(V10
p3974
I-15
tp3975
a(V3
p3976
I16
tp3977
a(V3
p3978
I-16
tp3979
a(V15
p3980
I15
tp3981
a(V3
p3982
I-15
tp3983
a(V2
p3984
I15
tp3985
a(V16
p3986
I-15
tp3987
a(V56
p3988
I-19
tp3989
a(V12
p3990
I17
tp3991
a(V4
p3992
I10
tp3993
a(V14
p3994
I16
tp3995
a(V9
p3996
I-17
tp3997
a(V0
p3998
I-10
tp3999
a(V7
p4000
I10
tp4001
a(V0
p4002
I-16
tp4003
a(V7
p4004
I10
tp4005
asS'code'
p4006
S'C0P-46R68646'
p4007
sS'condition'
p4008
I0
sS'points'
p4009
I-60
ssVmt_A1JV64BL3WCK0G
p4010
(dp4011
S'ip'
p4012
(lp4013
(I0
I0
tp4014
a(V8
p4015
I20
tp4016
a(V9
p4017
I20
tp4018
a(V6
p4019
I-10
tp4020
a(V5
p4021
I20
tp4022
a(V0
p4023
I0
tp4024
a(V3
p4025
I18
tp4026
asS'code'
p4027
S'C1P68R19222'
p4028
sS'condition'
p4029
I1
sS'points'
p4030
I68
ssS'uCQ90ZZVTQP'
p4031
(dp4032
S'ip'
p4033
(lp4034
(I0
I0
tp4035
asS'points'
p4036
I0
sS'condition'
p4037
I1
ssVmt_A2JYPDENMYQRZK
p4038
(dp4039
S'ip'
p4040
(lp4041
(I0
I0
tp4042
a(V60
p4043
I-16
tp4044
a(V55
p4045
I-17
tp4046
a(V33
p4047
I-19
tp4048
a(V30
p4049
I16
tp4050
a(V28
p4051
I16
tp4052
a(V39
p4053
I17
tp4054
a(V0
p4055
I-16
tp4056
a(V0
p4057
I-16
tp4058
a(V4
p4059
I-16
tp4060
a(V0
p4061
I16
tp4062
a(V3
p4063
I16
tp4064
a(V4
p4065
I16
tp4066
a(V43
p4067
I-18
tp4068
a(V35
p4069
I-16
tp4070
a(V0
p4071
I11
tp4072
a(V0
p4073
I11
tp4074
a(V0
p4075
I16
tp4076
asS'code'
p4077
S'C1P-3R6250'
p4078
sS'condition'
p4079
I1
sS'points'
p4080
I1
ssS'uRS1FOWZA5Q'
p4081
(dp4082
S'last_claim'
p4083
I27
sS'ip'
p4084
(lp4085
(V0
p4086
I0
tp4087
asS'ans'
p4088
(lp4089
V3
p4090
asS'allslider'
p4091
(lp4092
V{"rep":["0.1","0.1","0.7","0.1","0.0","0.3","0","0.2","0.1","0.2","0.6","0.6","0.6","0.1","0.9","0.1","0.1","0.1","0","0","0","0.7","0.7","0.5","1","1","0.1","0","0.4","0.1","0","0","0.1","0.1","0.8","0.8","0.6","0.6","0","0.3"],"stn":["-0.8","-0.2","-0.8","0.8","0.6","0.2","-0.4","-0.8","0.6","0.4","1.0","-0.4","-1.0","-0.4","0.0","0.8","-0.6","-1.0","1.0","-0.6","-0.5","0.0","-0.5","0.5","0.5","0.4","0.4","-0.6","-0.2","-0.8","0.0","-0.2","-0.2","0.4","-0.8","0.6","1.0","-0.4","-0.6","0.4"]}
p4093
asS'time'
p4094
(lp4095
I1526677869
asS'condition'
p4096
I1
ssVmt_iu2
p4097
(dp4098
S'ip'
p4099
(lp4100
(I0
I0
tp4101
a(V0
p4102
I18
tp4103
a(V0
p4104
I20
tp4105
a(V0
p4106
I20
tp4107
a(V0
p4108
I-20
tp4109
a(V0
p4110
I20
tp4111
a(V0
p4112
I20
tp4113
asS'code'
p4114
S'C0P78R93411'
p4115
sS'condition'
p4116
I0
sS'points'
p4117
I78
ssVmt_iu1
p4118
(dp4119
S'ip'
p4120
(lp4121
(I0
I0
tp4122
a(I0
I0
tp4123
a(V1
p4124
I20
tp4125
a(V0
p4126
I20
tp4127
a(V1
p4128
I20
tp4129
a(V0
p4130
I10
tp4131
a(V0
p4132
I0
tp4133
a(V0
p4134
I20
tp4135
asS'code'
p4136
S'C1P90R13204'
p4137
sS'condition'
p4138
I1
sS'points'
p4139
I90
ssS'u1BJG2T79VF'
p4140
(dp4141
S'ip'
p4142
(lp4143
(I0
I0
tp4144
asS'points'
p4145
I0
sS'condition'
p4146
I1
ssVmt_A3LIOY7C4ZDQ50
p4147
(dp4148
S'code'
p4149
S'C0A2154452425R7103'
p4150
sS'last_claim'
p4151
I10
sS'bonus'
p4152
(lp4153
I12
aI15
aI0
aI12
aI12
aI15
aI12
aI2
aI12
aI15
asS'ip'
p4154
(lp4155
(I0
I0
tp4156
a(V6
p4157
I0
tp4158
a(V11
p4159
I0
tp4160
a(V2
p4161
I0
tp4162
a(V4
p4163
I0
tp4164
a(V7
p4165
I0
tp4166
a(V3
p4167
I0
tp4168
a(V1
p4169
I0
tp4170
a(V3
p4171
I0
tp4172
a(V0
p4173
I0
tp4174
a(V2
p4175
I0
tp4176
asS'ans'
p4177
(lp4178
V2
p4179
aV1
p4180
aV5
p4181
aV4
p4182
aV4
p4183
aV5
p4184
aV2
p4185
aV4
p4186
aV2
p4187
aV5
p4188
asS'allslider'
p4189
(lp4190
V{"rep":["0.2","0.4","0.9","0","0.2","0","0","0","0.8","0.6"],"stn":["0.4","-0.8","0.2","0.1","-0.6","0.6","0.7","0","-0.2","-0.1"]}
p4191
aV{"rep":["-0.3","-0.9","-0.9","0.2","0","0","0","0","0","0"],"stn":["-0.5","0.7","0.6","-0.8","0.8","0.1","0.1","0.8","0.9","0.3"]}
p4192
aV{"rep":["0","0.1","-0.2","0","0.4","0","0.2"],"stn":["0.8","0.8","0.1","0.8","0.8","0.9","0.7"]}
p4193
aV{"rep":["-0.1","0","0","0.8","0.1","0.5","0","0.4"],"stn":["0.4","0.9","0.7","0.3","0.7","0.8","0.8","0.8"]}
p4194
aV{"rep":["0.1","0","0.4","0.2","-0.1","0.3","-0.6","0.7"],"stn":["0.9","0.8","0.9","0.9","0.9","0.9","0.8","0.8"]}
p4195
aV{"rep":["0","0","0","0.2","0","0.8","0.6","0.3","0.8","0"],"stn":["0.8","0.6","0.8","0.6","0.6","0.8","0.7","0.7","0.7","0.8"]}
p4196
aV{"rep":["0","0.1","0.3","-0.4","0.4","0.4","0.4","0","0.3"],"stn":["0.7","0.7","0.9","0.8","0.9","-0.4","0.9","0.7","0.7"]}
p4197
aV{"rep":["1","0","0.1","1","0.5","0.3"],"stn":["0.6","0","0.6","0.7","0.4","0.5"]}
p4198
aV{"rep":["0","0"],"stn":["0.6","0.6"]}
p4199
aV{"rep":["0.1","0","0.2","0.1","0.4","0.4","0.7","0.5","1","0.7","0","0.2","0","1","1","0.6"],"stn":["0.8","0.2","0.9","0.7","0.6","0.1","0.9","0.3","0.9","0.5","0.6","0.7","0.7","0.8","0.6","0.8"]}
p4200
asS'time'
p4201
(lp4202
I1526681137
aI1526681291
aI1526681406
aI1526681465
aI1526681520
aI1526681570
aI1526681601
aI1526681654
aI1526681680
aI1526681698
aI1526681736
asS'total_bonus'
p4203
I107
sS'condition'
p4204
I0
ssS'u868QY4AGJS'
p4205
(dp4206
S'ip'
p4207
(lp4208
(I0
I0
tp4209
asS'points'
p4210
I0
sS'condition'
p4211
I1
ssVmt_AOWW3URQNRJ6U
p4212
(dp4213
S'ip'
p4214
(lp4215
(I0
I0
tp4216
a(V0
p4217
I15
tp4218
a(V0
p4219
I20
tp4220
a(V0
p4221
I-20
tp4222
a(V0
p4223
I20
tp4224
a(V0
p4225
I0
tp4226
a(V0
p4227
I20
tp4228
a(V0
p4229
I-11
tp4230
asS'code'
p4231
S'C1P55R91775'
p4232
sS'condition'
p4233
I1
sS'points'
p4234
I44
ssVmt_ASIULWA5R4JYU
p4235
(dp4236
S'ip'
p4237
(lp4238
(I0
I0
tp4239
a(V45
p4240
I16
tp4241
a(V23
p4242
I20
tp4243
a(V18
p4244
I-16
tp4245
a(V11
p4246
I-15
tp4247
a(V11
p4248
I0
tp4249
a(V7
p4250
I14
tp4251
asS'code'
p4252
S'C1P19R98538'
p4253
sS'condition'
p4254
V1
p4255
sS'points'
p4256
I19
ssS'uWQ2K2RDRLL'
p4257
(dp4258
S'last_claim'
p4259
I16
sS'ip'
p4260
(lp4261
(V0
p4262
I0
tp4263
asS'time'
p4264
(lp4265
I1526677665
asS'allslider'
p4266
(lp4267
V{"rep":["0.1","0","0.1","0.7"],"stn":["0.6","1.0","0.6","0.2"]}
p4268
asS'ans'
p4269
(lp4270
V3
p4271
asS'condition'
p4272
I1
ssS'uA035WREBVS'
p4273
(dp4274
S'last_claim'
p4275
I28
sS'ip'
p4276
(lp4277
(V0
p4278
I0
tp4279
asS'time'
p4280
(lp4281
I1526677877
asS'allslider'
p4282
(lp4283
V{"rep":["0.3"],"stn":["0.8"]}
p4284
asS'ans'
p4285
(lp4286
V3
p4287
asS'condition'
p4288
I1
ssVmt_AUFUUD4WG9CVO
p4289
(dp4290
S'ip'
p4291
(lp4292
(I0
I0
tp4293
a(V4
p4294
I20
tp4295
a(V1
p4296
I20
tp4297
a(V0
p4298
I-20
tp4299
a(V0
p4300
I20
tp4301
a(V0
p4302
I0
tp4303
a(V0
p4304
I20
tp4305
a(V2
p4306
I-20
tp4307
a(V0
p4308
I-20
tp4309
a(V0
p4310
I0
tp4311
a(V0
p4312
I20
tp4313
a(V0
p4314
I10
tp4315
asS'code'
p4316
S'C1P60R9963'
p4317
sS'condition'
p4318
I1
sS'points'
p4319
I50
ssVmt_AGHY9RRMN9TD0
p4320
(dp4321
S'ip'
p4322
(lp4323
(I0
I0
tp4324
a(V2
p4325
I-16
tp4326
a(V5
p4327
I16
tp4328
a(V3
p4329
I-14
tp4330
a(V0
p4331
I18
tp4332
a(V0
p4333
I0
tp4334
a(V0
p4335
I14
tp4336
a(V0
p4337
I-12
tp4338
asS'code'
p4339
S'C0P18R5844'
p4340
sS'condition'
p4341
I0
sS'points'
p4342
I6
ssVmt_A13PXTFOXDCKBF
p4343
(dp4344
S'ip'
p4345
(lp4346
(I0
I0
tp4347
a(V33
p4348
I-7
tp4349
a(V24
p4350
I19
tp4351
a(V15
p4352
I-6
tp4353
a(V13
p4354
I16
tp4355
a(V13
p4356
I0
tp4357
a(V11
p4358
I19
tp4359
a(V13
p4360
I-6
tp4361
asS'code'
p4362
S'C0P41R73103'
p4363
sS'condition'
p4364
I0
sS'points'
p4365
I35
ssVmt_AKG7VBOY97HKA
p4366
(dp4367
S'ip'
p4368
(lp4369
(I0
I0
tp4370
a(V5
p4371
I-17
tp4372
a(V11
p4373
I14
tp4374
a(V8
p4375
I-10
tp4376
a(V5
p4377
I-10
tp4378
a(V10
p4379
I-10
tp4380
a(V9
p4381
I-13
tp4382
a(V5
p4383
I12
tp4384
asS'code'
p4385
S'C1P-46R88636'
p4386
sS'condition'
p4387
I1
sS'points'
p4388
I-34
ssVmt_ABC124
p4389
(dp4390
S'ip'
p4391
(lp4392
(I0
I0
tp4393
a(I0
I0
tp4394
a(I0
I0
tp4395
a(I0
I0
tp4396
a(I0
I0
tp4397
a(I0
I0
tp4398
a(I0
I0
tp4399
a(I0
I0
tp4400
a(I0
I0
tp4401
a(I0
I0
tp4402
a(I0
I0
tp4403
a(V0
p4404
I10
tp4405
a(V0
p4406
I10
tp4407
a(V0
p4408
I14
tp4409
a(V0
p4410
I-10
tp4411
a(V0
p4412
I10
tp4413
a(I0
I0
tp4414
a(I0
I0
tp4415
a(I0
I0
tp4416
a(I0
I0
tp4417
a(I0
I0
tp4418
a(V0
p4419
I10
tp4420
a(I0
I0
tp4421
asS'points'
p4422
I44
sS'condition'
p4423
V0
p4424
ssVmt_ABC125
p4425
(dp4426
S'ip'
p4427
(lp4428
(I0
I0
tp4429
asS'points'
p4430
I0
sS'condition'
p4431
I1
ssVmt_ABC126
p4432
(dp4433
S'ip'
p4434
(lp4435
(I0
I0
tp4436
asS'points'
p4437
I0
sS'condition'
p4438
V0
p4439
ssVmt_AKZ8SFOAI4RZN
p4440
(dp4441
S'ip'
p4442
(lp4443
(I0
I0
tp4444
a(V0
p4445
I11
tp4446
a(V0
p4447
I-14
tp4448
a(V0
p4449
I16
tp4450
a(V0
p4451
I18
tp4452
a(V0
p4453
I20
tp4454
a(V0
p4455
I20
tp4456
asS'code'
p4457
S'C0P71R89322'
p4458
sS'condition'
p4459
I0
sS'points'
p4460
I71
ssVmt_ABC123
p4461
(dp4462
S'ip'
p4463
(lp4464
(I0
I0
tp4465
a(V1
p4466
I15
tp4467
a(V0
p4468
I20
tp4469
a(V0
p4470
I20
tp4471
a(V0
p4472
I-20
tp4473
a(V0
p4474
I0
tp4475
a(V0
p4476
I0
tp4477
a(V0
p4478
I0
tp4479
a(I0
I0
tp4480
a(V1
p4481
I19
tp4482
a(I0
I0
tp4483
a(V0
p4484
I10
tp4485
a(V0
p4486
I10
tp4487
a(V0
p4488
I10
tp4489
a(I0
I0
tp4490
a(V1
p4491
I10
tp4492
a(I0
I0
tp4493
a(I0
I0
tp4494
a(V0
p4495
I10
tp4496
a(V0
p4497
I10
tp4498
a(V0
p4499
I10
tp4500
a(V0
p4501
I-10
tp4502
a(V0
p4503
I-10
tp4504
a(V0
p4505
I-10
tp4506
a(I0
I0
tp4507
a(I0
I0
tp4508
a(I0
I0
tp4509
a(I0
I0
tp4510
a(V0
p4511
I-10
tp4512
a(I0
I0
tp4513
asS'code'
p4514
S'C1P35R98425'
p4515
sS'condition'
p4516
V1
p4517
sS'points'
p4518
I84
ssVmt_A2RERU8W833VG0
p4519
(dp4520
S'ip'
p4521
(lp4522
(I0
I0
tp4523
a(V14
p4524
I-15
tp4525
a(V14
p4526
I10
tp4527
a(V6
p4528
I15
tp4529
a(V0
p4530
I10
tp4531
a(V0
p4532
I20
tp4533
a(V0
p4534
I20
tp4535
a(V0
p4536
I-18
tp4537
a(V0
p4538
I10
tp4539
a(V0
p4540
I-13
tp4541
a(V0
p4542
I20
tp4543
asS'code'
p4544
S'C0P60R6518'
p4545
sS'condition'
p4546
I0
sS'points'
p4547
I59
ssVmt_TEST123
p4548
(dp4549
S'ip'
p4550
(lp4551
(I0
I0
tp4552
asS'points'
p4553
I0
sS'condition'
p4554
V1
p4555
ssVmt_AVQGY7FCU80XP
p4556
(dp4557
S'ip'
p4558
(lp4559
(I0
I0
tp4560
a(V0
p4561
I12
tp4562
a(V0
p4563
I17
tp4564
a(V0
p4565
I-14
tp4566
a(V0
p4567
I15
tp4568
a(V0
p4569
I0
tp4570
a(V0
p4571
I15
tp4572
asS'code'
p4573
S'C0P45R63444'
p4574
sS'condition'
p4575
I0
sS'points'
p4576
I45
ssVmt_TEST124
p4577
(dp4578
S'ip'
p4579
(lp4580
(I0
I0
tp4581
asS'points'
p4582
I0
sS'condition'
p4583
V0
p4584
ssS'uWASCMIBX3O'
p4585
(dp4586
S'ip'
p4587
(lp4588
(I0
I0
tp4589
asS'points'
p4590
I0
sS'condition'
p4591
I1
ssVmt_AD8JNBDMO3NED
p4592
(dp4593
S'ip'
p4594
(lp4595
(I0
I0
tp4596
a(V32
p4597
I16
tp4598
a(V20
p4599
I10
tp4600
a(V21
p4601
I10
tp4602
a(V26
p4603
I-10
tp4604
a(V11
p4605
I-10
tp4606
a(V13
p4607
I10
tp4608
asS'code'
p4609
S'C0P26R75952'
p4610
sS'condition'
p4611
I0
sS'points'
p4612
I26
ssS'uMYVZPFKHNV'
p4613
(dp4614
S'ip'
p4615
(lp4616
(I0
I0
tp4617
asS'points'
p4618
I0
sS'condition'
p4619
I1
ssS'uHH21DVB668'
p4620
(dp4621
S'ip'
p4622
(lp4623
(I0
I0
tp4624
asS'points'
p4625
I0
sS'condition'
p4626
I1
ssVmt_AN34L55U9865M
p4627
(dp4628
S'ip'
p4629
(lp4630
(I0
I0
tp4631
a(V0
p4632
I10
tp4633
a(V0
p4634
I15
tp4635
a(V0
p4636
I-12
tp4637
a(V0
p4638
I14
tp4639
a(V0
p4640
I10
tp4641
a(V0
p4642
I10
tp4643
a(V0
p4644
I10
tp4645
a(V0
p4646
I-12
tp4647
a(V0
p4648
I-12
tp4649
a(V0
p4650
I10
tp4651
a(V0
p4652
I10
tp4653
a(V0
p4654
I12
tp4655
a(V0
p4656
I-12
tp4657
a(V0
p4658
I-12
tp4659
a(V0
p4660
I-12
tp4661
a(V0
p4662
I12
tp4663
a(V0
p4664
I14
tp4665
a(I0
I0
tp4666
a(V0
p4667
I-13
tp4668
a(V0
p4669
I-12
tp4670
a(V0
p4671
I-13
tp4672
a(V0
p4673
I13
tp4674
a(V0
p4675
I13
tp4676
a(V0
p4677
I13
tp4678
a(V0
p4679
I-13
tp4680
a(V0
p4681
I-12
tp4682
a(V0
p4683
I8
tp4684
a(V0
p4685
I16
tp4686
a(V0
p4687
I15
tp4688
a(V0
p4689
I-8
tp4690
a(V0
p4691
I-13
tp4692
a(V0
p4693
I-13
tp4694
a(V0
p4695
I12
tp4696
a(V0
p4697
I12
tp4698
a(V0
p4699
I14
tp4700
a(V0
p4701
I-14
tp4702
a(V0
p4703
I-13
tp4704
a(V0
p4705
I12
tp4706
a(V0
p4707
I8
tp4708
a(V0
p4709
I-13
tp4710
a(V0
p4711
I-12
tp4712
a(V0
p4713
I-12
tp4714
a(V0
p4715
I14
tp4716
a(V0
p4717
I-7
tp4718
a(V0
p4719
I-13
tp4720
a(V0
p4721
I-13
tp4722
a(V0
p4723
I-13
tp4724
a(V0
p4725
I13
tp4726
a(V0
p4727
I7
tp4728
a(V0
p4729
I14
tp4730
a(V0
p4731
I-17
tp4732
a(V0
p4733
I14
tp4734
a(V0
p4735
I-7
tp4736
a(V0
p4737
I8
tp4738
asS'code'
p4739
S'C1P47R44468'
p4740
sS'condition'
p4741
I1
sS'points'
p4742
I30
ssVmt_AO33H4GL9KZX9
p4743
(dp4744
S'ip'
p4745
(lp4746
(I0
I0
tp4747
a(V9
p4748
I-16
tp4749
a(V11
p4750
I-16
tp4751
a(V5
p4752
I-18
tp4753
a(V8
p4754
I19
tp4755
a(V1
p4756
I0
tp4757
a(V20
p4758
I16
tp4759
asS'code'
p4760
S'C1P-15R50262'
p4761
sS'condition'
p4762
I1
sS'points'
p4763
I-15
ssVmt_A2RCYLKY072XXO
p4764
(dp4765
S'ip'
p4766
(lp4767
(I0
I0
tp4768
asS'points'
p4769
I0
sS'condition'
p4770
I1
ssVmt_A3GMFO5QHQ69PA
p4771
(dp4772
S'ip'
p4773
(lp4774
(I0
I0
tp4775
asS'points'
p4776
I0
sS'condition'
p4777
I1
ssVmt_A13HZKB2NGZP6B
p4778
(dp4779
S'code'
p4780
S'C0A2144451414R9462'
p4781
sS'last_claim'
p4782
I10
sS'bonus'
p4783
(lp4784
I12
aI15
aI2
aI12
aI12
aI15
aI15
aI2
aI15
aI12
asS'ip'
p4785
(lp4786
(I0
I0
tp4787
a(V14
p4788
I0
tp4789
a(V7
p4790
I0
tp4791
a(V2
p4792
I0
tp4793
a(V4
p4794
I0
tp4795
a(V6
p4796
I0
tp4797
a(V0
p4798
I0
tp4799
a(V4
p4800
I0
tp4801
a(V0
p4802
I0
tp4803
a(V2
p4804
I0
tp4805
a(V1
p4806
I0
tp4807
asS'time'
p4808
(lp4809
I1526659293
aI1526659365
aI1526659415
aI1526659448
aI1526659491
aI1526659547
aI1526659592
aI1526659635
aI1526659649
aI1526659665
aI1526659703
asS'allslider'
p4810
(lp4811
sS'ans'
p4812
(lp4813
V2
p4814
aV1
p4815
aV4
p4816
aV4
p4817
aV4
p4818
aV5
p4819
aV1
p4820
aV4
p4821
aV1
p4822
aV4
p4823
asS'total_bonus'
p4824
I112
sS'condition'
p4825
I0
ssVmt_A2QIZ31TMHU0GD
p4826
(dp4827
S'ip'
p4828
(lp4829
(I0
I0
tp4830
a(V0
p4831
I-12
tp4832
a(V0
p4833
I-10
tp4834
a(V0
p4835
I-13
tp4836
a(V0
p4837
I11
tp4838
a(V0
p4839
I-14
tp4840
a(V0
p4841
I12
tp4842
a(V0
p4843
I-10
tp4844
a(V0
p4845
I11
tp4846
a(V0
p4847
I-11
tp4848
a(V0
p4849
I12
tp4850
a(V0
p4851
I14
tp4852
a(V0
p4853
I-11
tp4854
a(V0
p4855
I-14
tp4856
a(V0
p4857
I13
tp4858
a(V0
p4859
I14
tp4860
a(V0
p4861
I14
tp4862
a(V0
p4863
I-15
tp4864
a(V0
p4865
I-15
tp4866
a(V0
p4867
I-13
tp4868
a(V0
p4869
I10
tp4870
a(V0
p4871
I-13
tp4872
a(V0
p4873
I-11
tp4874
a(V0
p4875
I-13
tp4876
a(V0
p4877
I-13
tp4878
a(V0
p4879
I20
tp4880
a(V0
p4881
I-14
tp4882
a(V0
p4883
I-20
tp4884
a(V0
p4885
I-16
tp4886
a(V0
p4887
I15
tp4888
a(V0
p4889
I-14
tp4890
a(V0
p4891
I-16
tp4892
a(V0
p4893
I-13
tp4894
a(V0
p4895
I13
tp4896
a(V0
p4897
I13
tp4898
a(V0
p4899
I-14
tp4900
a(V0
p4901
I-14
tp4902
a(I0
I0
tp4903
a(V0
p4904
I-13
tp4905
a(V0
p4906
I-13
tp4907
a(V0
p4908
I-14
tp4909
a(V0
p4910
I-15
tp4911
a(V0
p4912
I14
tp4913
a(V0
p4914
I14
tp4915
asS'code'
p4916
S'C0P-26R48970'
p4917
sS'condition'
p4918
I0
sS'points'
p4919
I-164
ssS'uBSRD2OW1KA'
p4920
(dp4921
S'last_claim'
p4922
I3
sS'ip'
p4923
(lp4924
(V0
p4925
I0
tp4926
asS'ans'
p4927
(lp4928
V4
p4929
asS'allslider'
p4930
(lp4931
V{"rep":["0","0.1","0","0.0","0.2","0.0","0.2"],"stn":["1.0","0.8","0.6","1.0","1.0","1.0","0.8"]}
p4932
asS'time'
p4933
(lp4934
I1526677509
asS'condition'
p4935
I1
ssS'uPETF8VRCRJ'
p4936
(dp4937
S'ip'
p4938
(lp4939
(I0
I0
tp4940
a(I0
I0
tp4941
asS'points'
p4942
I0
sS'condition'
p4943
I1
ssVmt_A1BW7N44HGFDOC
p4944
(dp4945
S'ip'
p4946
(lp4947
(I0
I0
tp4948
a(V14
p4949
I16
tp4950
a(V31
p4951
I16
tp4952
a(V7
p4953
I-13
tp4954
a(V7
p4955
I18
tp4956
a(V9
p4957
I10
tp4958
a(V5
p4959
I20
tp4960
asS'code'
p4961
S'C1P67R55281'
p4962
sS'condition'
p4963
I1
sS'points'
p4964
I67
ssVmt_A1YNGQXMGLM9L7
p4965
(dp4966
S'ip'
p4967
(lp4968
(I0
I0
tp4969
a(V1
p4970
I-16
tp4971
a(V4
p4972
I-15
tp4973
a(V1
p4974
I15
tp4975
a(V2
p4976
I-16
tp4977
a(V1
p4978
I16
tp4979
a(V1
p4980
I16
tp4981
a(V1
p4982
I17
tp4983
asS'code'
p4984
S'C1P0R45370'
p4985
sS'condition'
p4986
I1
sS'points'
p4987
I17
ssVmt_A1PF01FF85HUY4
p4988
(dp4989
S'ip'
p4990
(lp4991
(I0
I0
tp4992
a(V0
p4993
I20
tp4994
a(V0
p4995
I-5
tp4996
a(V0
p4997
I-17
tp4998
a(V0
p4999
I20
tp5000
a(V0
p5001
I20
tp5002
a(V0
p5003
I20
tp5004
asS'code'
p5005
S'C0P58R17283'
p5006
sS'condition'
p5007
I0
sS'points'
p5008
I58
ssS'uDAXHQ037WP'
p5009
(dp5010
S'ip'
p5011
(lp5012
(I0
I0
tp5013
asS'points'
p5014
I0
sS'condition'
p5015
I1
ssS'uZKMXJWMGUR'
p5016
(dp5017
S'ip'
p5018
(lp5019
(I0
I0
tp5020
asS'points'
p5021
I0
sS'condition'
p5022
I1
ssS'u55W2960W17'
p5023
(dp5024
S'ip'
p5025
(lp5026
(I0
I0
tp5027
asS'points'
p5028
I0
sS'condition'
p5029
I1
ssS'uL7DBTTJZNV'
p5030
(dp5031
S'ip'
p5032
(lp5033
(I0
I0
tp5034
asS'points'
p5035
I0
sS'condition'
p5036
I1
ssS'uO2TRKHL8AH'
p5037
(dp5038
S'last_claim'
p5039
I15
sS'ip'
p5040
(lp5041
(V0
p5042
I0
tp5043
asS'ans'
p5044
(lp5045
V4
p5046
asS'allslider'
p5047
(lp5048
V{"rep":["1","0","0.1","0.2","0.5","0.2","0.5","0.7","0.7","0.3"],"stn":["0.4","1.0","0.4","0.8","0.8","0.8","0.6","0.4","0.8","0.4"]}
p5049
asS'time'
p5050
(lp5051
I1526677654
asS'condition'
p5052
I1
ssVmt_A1PZS3UIH64YP7
p5053
(dp5054
S'ip'
p5055
(lp5056
(I0
I0
tp5057
a(V0
p5058
I-12
tp5059
a(V0
p5060
I17
tp5061
a(V0
p5062
I-13
tp5063
a(V0
p5064
I-16
tp5065
a(V0
p5066
I18
tp5067
a(V0
p5068
I18
tp5069
asS'code'
p5070
S'C1P12R46146'
p5071
sS'condition'
p5072
I1
sS'points'
p5073
I12
ssS'uB5FAL7C3AS'
p5074
(dp5075
S'last_claim'
p5076
I0
sS'ip'
p5077
(lp5078
(I0
I0
tp5079
asS'time'
p5080
(lp5081
I1526695167
asS'allslider'
p5082
(lp5083
sS'ans'
p5084
(lp5085
sS'condition'
p5086
I1
ssVmt_A2XZQ8ZG115G6S
p5087
(dp5088
S'ip'
p5089
(lp5090
(I0
I0
tp5091
a(V6
p5092
I-13
tp5093
a(V0
p5094
I10
tp5095
a(V0
p5096
I-10
tp5097
a(V0
p5098
I-10
tp5099
a(V0
p5100
I10
tp5101
a(V0
p5102
I-10
tp5103
asS'code'
p5104
S'C1P-23R83205'
p5105
sS'condition'
p5106
I1
sS'points'
p5107
I-23
ssVmt_A3FOL78K2EQYVN
p5108
(dp5109
S'code'
p5110
S'C0A1155551515R5627'
p5111
sS'last_claim'
p5112
I10
sS'bonus'
p5113
(lp5114
I15
aI15
aI0
aI15
aI15
aI15
aI15
aI0
aI15
aI15
asS'ip'
p5115
(lp5116
(I0
I0
tp5117
a(V0
p5118
I0
tp5119
a(V0
p5120
I0
tp5121
a(V0
p5122
I0
tp5123
a(V0
p5124
I0
tp5125
a(V0
p5126
I0
tp5127
a(V0
p5128
I0
tp5129
a(V0
p5130
I0
tp5131
a(V0
p5132
I0
tp5133
a(V0
p5134
I0
tp5135
a(V0
p5136
I0
tp5137
asS'time'
p5138
(lp5139
I1526677506
aI1526677545
aI1526677567
aI1526677598
aI1526677632
aI1526677669
aI1526677692
aI1526677713
aI1526677736
aI1526677746
aI1526677775
asS'allslider'
p5140
(lp5141
V{"rep":["0.2","0.4","0.4","0","0.2","0","0.0","0.0","0.6","0.3"],"stn":["0.7","-0.5","0.2","0.1","0.6","0.6","0.7","0","-0.2","-0.1"]}
p5142
aV{"rep":["0","0","0","0","0","0","0","0","0.0","0"],"stn":["-0.3","0.7","0.6","-0.6","0.8","0.1","0.2","0.8","0.9","0.3"]}
p5143
aV{"rep":["0","0.1","0","0.0","0.2","0.0","0.2"],"stn":["0.8","0.1","0.1","0.8","0.8","0.9","0.7"]}
p5144
aV{"rep":["0","0","0","0.6","0.1","0.4","0","0"],"stn":["0.4","0.9","0.7","0.3","0.7","0.8","0.8","0.8"]}
p5145
aV{"rep":["0.1","0","0","0.1","0.1","0.3","0.1","0.7"],"stn":["0.9","0.8","0.9","0.9","0.9","0.9","0.8","0.8"]}
p5146
aV{"rep":["0","0","0","0.2","0","0.6","0.5","0","0.8","0"],"stn":["0.8","0.6","0.8","0.6","0.6","0.8","0.7","0.7","0.7","0.8"]}
p5147
aV{"rep":["0","0.1","0.3","0.1","0.4","0.4","0.4","0","0.3"],"stn":["0.7","0.7","0.9","0.8","0.9","-0.4","0.9","0.7","0.7"]}
p5148
aV{"rep":["1","0","0.1","0.7","0.2","0.0"],"stn":["0.6","0","0.6","0.7","0.4","0.5"]}
p5149
aV{"rep":["0","0"],"stn":["0.6","0.6"]}
p5150
aV{"rep":["0.1","0","0.2","0.1","0.3","0.3","0.7","0.5","1","0.7","0","0.2","0.0","1","1","0.3"],"stn":["0.8","0.2","0.9","0.7","0.6","0.1","0.9","0.3","0.9","0.5","0.6","0.7","0.7","0.8","0.6","0.8"]}
p5151
asS'ans'
p5152
(lp5153
V1
p5154
aV1
p5155
aV5
p5156
aV5
p5157
aV5
p5158
aV5
p5159
aV1
p5160
aV5
p5161
aV1
p5162
aV5
p5163
asS'total_bonus'
p5164
I120
sS'condition'
p5165
I0
ssVmt_ACJTRTT2SO4E0
p5166
(dp5167
S'ip'
p5168
(lp5169
(I0
I0
tp5170
a(V0
p5171
I-16
tp5172
a(V0
p5173
I-10
tp5174
a(V0
p5175
I12
tp5176
a(V0
p5177
I20
tp5178
a(V0
p5179
I11
tp5180
a(V0
p5181
I20
tp5182
a(V0
p5183
I-14
tp5184
a(V0
p5185
I-13
tp5186
a(V0
p5187
I19
tp5188
a(V0
p5189
I20
tp5190
a(V0
p5191
I-6
tp5192
a(V0
p5193
I10
tp5194
a(V0
p5195
I-20
tp5196
a(V0
p5197
I10
tp5198
a(V0
p5199
I16
tp5200
a(V0
p5201
I14
tp5202
a(V0
p5203
I20
tp5204
a(V0
p5205
I-20
tp5206
a(V0
p5207
I-15
tp5208
a(V0
p5209
I5
tp5210
asS'code'
p5211
S'C0P37R50507'
p5212
sS'condition'
p5213
I0
sS'points'
p5214
I63
ssVmt_A1PMZUBGXFANCI
p5215
(dp5216
S'ip'
p5217
(lp5218
(I0
I0
tp5219
a(V16
p5220
I17
tp5221
a(V3
p5222
I20
tp5223
a(V0
p5224
I-3
tp5225
a(V5
p5226
I10
tp5227
a(V0
p5228
I0
tp5229
a(V0
p5230
I20
tp5231
a(V0
p5232
I4
tp5233
a(V0
p5234
I-9
tp5235
asS'code'
p5236
S'C1P64R11705'
p5237
sS'condition'
p5238
I1
sS'points'
p5239
I59
ssS'uB3QVGAFLWN'
p5240
(dp5241
S'ip'
p5242
(lp5243
(I0
I0
tp5244
asS'points'
p5245
I0
sS'condition'
p5246
I1
ssVmt_A2F9V69F6TZIAB
p5247
(dp5248
S'ip'
p5249
(lp5250
(I0
I0
tp5251
a(V0
p5252
I14
tp5253
a(V0
p5254
I18
tp5255
a(V0
p5256
I-19
tp5257
a(V0
p5258
I19
tp5259
a(V0
p5260
I0
tp5261
a(V0
p5262
I20
tp5263
asS'code'
p5264
S'C0P52R41683'
p5265
sS'condition'
p5266
I0
sS'points'
p5267
I52
ssVmt_A2RWLFIP23FZA7
p5268
(dp5269
S'ip'
p5270
(lp5271
(I0
I0
tp5272
a(V11
p5273
I-19
tp5274
a(V14
p5275
I-15
tp5276
a(V10
p5277
I18
tp5278
a(V16
p5279
I-18
tp5280
a(I0
I0
tp5281
a(V17
p5282
I19
tp5283
a(V11
p5284
I-18
tp5285
a(V11
p5286
I17
tp5287
a(V18
p5288
I18
tp5289
a(V11
p5290
I-19
tp5291
a(V14
p5292
I18
tp5293
asS'code'
p5294
S'C1P1R70486'
p5295
sS'condition'
p5296
I1
sS'points'
p5297
I1
ssVmt_A2RUHO7I7Y4XFA
p5298
(dp5299
S'ip'
p5300
(lp5301
(I0
I0
tp5302
a(V0
p5303
I-18
tp5304
a(V0
p5305
I-20
tp5306
a(V0
p5307
I-20
tp5308
a(V0
p5309
I-20
tp5310
a(V0
p5311
I20
tp5312
a(V0
p5313
I20
tp5314
a(V0
p5315
I-20
tp5316
a(V0
p5317
I-20
tp5318
a(V0
p5319
I5
tp5320
a(V0
p5321
I20
tp5322
a(V0
p5323
I15
tp5324
a(V0
p5325
I-5
tp5326
a(V0
p5327
I-20
tp5328
a(V0
p5329
I3
tp5330
a(V0
p5331
I20
tp5332
a(V0
p5333
I20
tp5334
a(V0
p5335
I20
tp5336
a(V0
p5337
I-13
tp5338
a(V0
p5339
I-16
tp5340
a(V0
p5341
I20
tp5342
asS'code'
p5343
S'C1P-38R17832'
p5344
sS'condition'
p5345
V1
p5346
sS'points'
p5347
I-9
ssVmt_A3N3LHDJHLHLTQ
p5348
(dp5349
S'code'
p5350
S'C1A1235454425R7423'
p5351
sS'last_claim'
p5352
I10
sS'bonus'
p5353
(lp5354
I15
aI12
aI4
aI15
aI12
aI15
aI2
aI2
aI12
aI15
asS'ip'
p5355
(lp5356
(I0
I0
tp5357
a(V0
p5358
I0
tp5359
a(V0
p5360
I0
tp5361
a(V0
p5362
I0
tp5363
a(V2
p5364
I0
tp5365
a(V0
p5366
I0
tp5367
a(V0
p5368
I0
tp5369
a(V0
p5370
I0
tp5371
a(V0
p5372
I0
tp5373
a(V0
p5374
I0
tp5375
a(V0
p5376
I0
tp5377
asS'time'
p5378
(lp5379
I1526660510
aI1526660565
aI1526660632
aI1526660726
aI1526660773
aI1526660821
aI1526660845
aI1526660887
aI1526660915
aI1526660949
aI1526660997
asS'allslider'
p5380
(lp5381
sS'ans'
p5382
(lp5383
V1
p5384
aV2
p5385
aV3
p5386
aV5
p5387
aV4
p5388
aV5
p5389
aV4
p5390
aV4
p5391
aV2
p5392
aV5
p5393
asS'total_bonus'
p5394
I104
sS'condition'
p5395
I1
ssVmt_A3PVIRB9JTIZHJ
p5396
(dp5397
S'ip'
p5398
(lp5399
(I0
I0
tp5400
a(V11
p5401
I19
tp5402
a(V10
p5403
I19
tp5404
a(V2
p5405
I-15
tp5406
a(V0
p5407
I20
tp5408
a(V0
p5409
I0
tp5410
a(V1
p5411
I15
tp5412
asS'code'
p5413
S'C0P58R2871'
p5414
sS'condition'
p5415
V0
p5416
sS'points'
p5417
I58
ssS'u6C7095K9QZ'
p5418
(dp5419
S'ip'
p5420
(lp5421
(I0
I0
tp5422
asS'points'
p5423
I0
sS'condition'
p5424
I1
ssS'u8OPPB2X72V'
p5425
(dp5426
S'ip'
p5427
(lp5428
(I0
I0
tp5429
asS'points'
p5430
I0
sS'condition'
p5431
I1
ssVmt_A1G2PW5L311IXU
p5432
(dp5433
S'ip'
p5434
(lp5435
(I0
I0
tp5436
a(V13
p5437
I18
tp5438
a(V7
p5439
I20
tp5440
a(V10
p5441
I7
tp5442
a(V4
p5443
I20
tp5444
a(V14
p5445
I20
tp5446
a(V6
p5447
I20
tp5448
asS'code'
p5449
S'C1P105R51339'
p5450
sS'condition'
p5451
I1
sS'points'
p5452
I105
ssVmt_A2BK45LZGGWPLX
p5453
(dp5454
S'ip'
p5455
(lp5456
(I0
I0
tp5457
a(V0
p5458
I20
tp5459
a(V0
p5460
I20
tp5461
a(V0
p5462
I-20
tp5463
a(V0
p5464
I20
tp5465
a(V0
p5466
I0
tp5467
a(V0
p5468
I20
tp5469
a(I0
I0
tp5470
asS'code'
p5471
S'C0P60R27494'
p5472
sS'condition'
p5473
I0
sS'points'
p5474
I60
ssVmt_A125KW9P18V5Z1
p5475
(dp5476
S'ip'
p5477
(lp5478
(I0
I0
tp5479
a(V0
p5480
I9
tp5481
a(V0
p5482
I12
tp5483
a(V0
p5484
I-15
tp5485
a(V0
p5486
I20
tp5487
a(V0
p5488
I0
tp5489
a(V0
p5490
I17
tp5491
a(V0
p5492
I-18
tp5493
a(V0
p5494
I-20
tp5495
a(V0
p5496
I20
tp5497
asS'code'
p5498
S'C1P43R26847'
p5499
sS'condition'
p5500
I1
sS'points'
p5501
I25
ssS'uTT8VJIRFK4'
p5502
(dp5503
S'last_claim'
p5504
I4
sS'ip'
p5505
(lp5506
(V0
p5507
I0
tp5508
asS'time'
p5509
(lp5510
I1526677521
asS'allslider'
p5511
(lp5512
V{"rep":["0","0","0","0.6","0.1","0.4","0","0"],"stn":["1.0","0.6","0.4","0.8","0.2","0.8","1.0","1.0"]}
p5513
asS'ans'
p5514
(lp5515
V4
p5516
asS'condition'
p5517
I1
ssVmt_A10YS8AVLQWUZZ
p5518
(dp5519
S'ip'
p5520
(lp5521
(I0
I0
tp5522
a(V0
p5523
I-11
tp5524
a(V0
p5525
I-10
tp5526
a(V0
p5527
I-12
tp5528
a(V0
p5529
I12
tp5530
a(V0
p5531
I14
tp5532
a(V0
p5533
I17
tp5534
asS'code'
p5535
S'C0P10R37600'
p5536
sS'condition'
p5537
I0
sS'points'
p5538
I10
ssVmt_A25R2OI9L2Q1OW
p5539
(dp5540
S'ip'
p5541
(lp5542
(I0
I0
tp5543
a(V9
p5544
I20
tp5545
a(V17
p5546
I20
tp5547
a(V2
p5548
I-20
tp5549
a(V0
p5550
I20
tp5551
a(V0
p5552
I0
tp5553
a(V0
p5554
I20
tp5555
a(V0
p5556
I20
tp5557
asS'code'
p5558
S'C1P60R36975'
p5559
sS'condition'
p5560
I1
sS'points'
p5561
I80
ssVmt_A1KWIJXTC47YWE
p5562
(dp5563
S'ip'
p5564
(lp5565
(I0
I0
tp5566
a(V0
p5567
I-17
tp5568
a(V0
p5569
I-11
tp5570
asS'points'
p5571
I-28
sS'condition'
p5572
V1
p5573
ssVmt_A9EQ4FWCUQVBL
p5574
(dp5575
S'ip'
p5576
(lp5577
(I0
I0
tp5578
a(I0
I0
tp5579
a(V9
p5580
I10
tp5581
asS'points'
p5582
I10
sS'condition'
p5583
I0
ssVmt_A3NMQ3019X6YE0
p5584
(dp5585
S'ip'
p5586
(lp5587
(I0
I0
tp5588
a(V27
p5589
I11
tp5590
a(V15
p5591
I16
tp5592
a(V8
p5593
I-10
tp5594
a(V9
p5595
I13
tp5596
a(V0
p5597
I0
tp5598
a(V9
p5599
I12
tp5600
asS'code'
p5601
S'C0P42R22126'
p5602
sS'condition'
p5603
V0
p5604
sS'points'
p5605
I42
ssVmt_AA1112334
p5606
(dp5607
S'ip'
p5608
(lp5609
(I0
I0
tp5610
a(I0
I0
tp5611
a(V0
p5612
I14
tp5613
a(V0
p5614
I-3
tp5615
a(V0
p5616
I-10
tp5617
a(V0
p5618
I-10
tp5619
a(V0
p5620
I-10
tp5621
a(V0
p5622
I-10
tp5623
asS'code'
p5624
S'C0P-29R61850'
p5625
sS'condition'
p5626
I0
sS'points'
p5627
I-29
ssVmt_A18U6F56K4K8AC
p5628
(dp5629
S'ip'
p5630
(lp5631
(I0
I0
tp5632
a(V39
p5633
I-15
tp5634
a(V39
p5635
I-15
tp5636
a(V11
p5637
I10
tp5638
a(V0
p5639
I10
tp5640
a(V0
p5641
I-10
tp5642
a(V6
p5643
I-10
tp5644
a(V3
p5645
I10
tp5646
a(V6
p5647
I10
tp5648
a(V2
p5649
I-10
tp5650
a(V3
p5651
I10
tp5652
a(V0
p5653
I-10
tp5654
a(V5
p5655
I-10
tp5656
a(V0
p5657
I-10
tp5658
a(V0
p5659
I-10
tp5660
a(V0
p5661
I-10
tp5662
a(V0
p5663
I-10
tp5664
a(V0
p5665
I10
tp5666
a(V0
p5667
I10
tp5668
a(V0
p5669
I-10
tp5670
a(V0
p5671
I10
tp5672
a(V0
p5673
I10
tp5674
a(V0
p5675
I-10
tp5676
a(V0
p5677
I-10
tp5678
a(V0
p5679
I-10
tp5680
a(V0
p5681
I-10
tp5682
a(V0
p5683
I10
tp5684
a(V0
p5685
I10
tp5686
a(V0
p5687
I10
tp5688
a(V0
p5689
I10
tp5690
a(V0
p5691
I-10
tp5692
a(V0
p5693
I-10
tp5694
a(V0
p5695
I10
tp5696
a(V0
p5697
I10
tp5698
a(V0
p5699
I10
tp5700
a(V0
p5701
I10
tp5702
a(V0
p5703
I-10
tp5704
a(V0
p5705
I-10
tp5706
a(V0
p5707
I-10
tp5708
a(V0
p5709
I-10
tp5710
a(V0
p5711
I-10
tp5712
a(V0
p5713
I10
tp5714
a(V0
p5715
I-10
tp5716
a(V0
p5717
I-10
tp5718
a(I0
I0
tp5719
a(V0
p5720
I10
tp5721
a(V0
p5722
I10
tp5723
a(V0
p5724
I10
tp5725
a(I0
I0
tp5726
a(V0
p5727
I10
tp5728
a(V0
p5729
I-10
tp5730
a(V0
p5731
I-10
tp5732
a(V0
p5733
I-10
tp5734
a(V0
p5735
I10
tp5736
a(V0
p5737
I10
tp5738
a(V0
p5739
I-10
tp5740
a(V0
p5741
I10
tp5742
a(V0
p5743
I10
tp5744
a(V0
p5745
I10
tp5746
a(V0
p5747
I10
tp5748
a(V0
p5749
I10
tp5750
a(V0
p5751
I10
tp5752
a(V0
p5753
I-10
tp5754
a(V0
p5755
I10
tp5756
a(V0
p5757
I-10
tp5758
a(V0
p5759
I-10
tp5760
a(V0
p5761
I10
tp5762
a(V0
p5763
I10
tp5764
a(V0
p5765
I10
tp5766
a(V0
p5767
I10
tp5768
a(V0
p5769
I-10
tp5770
a(V0
p5771
I-10
tp5772
a(V1
p5773
I10
tp5774
a(V0
p5775
I10
tp5776
a(V0
p5777
I19
tp5778
a(V0
p5779
I19
tp5780
a(V0
p5781
I20
tp5782
a(V0
p5783
I-20
tp5784
a(V0
p5785
I-20
tp5786
a(V0
p5787
I-20
tp5788
asS'code'
p5789
S'C1P-20R27030'
p5790
sS'condition'
p5791
I1
sS'points'
p5792
I18
ssS'uMOHPTHDV2U'
p5793
(dp5794
S'last_claim'
p5795
I23
sS'ip'
p5796
(lp5797
(V0
p5798
I0
tp5799
asS'time'
p5800
(lp5801
I1526677755
asS'allslider'
p5802
(lp5803
V{"rep":["0.0","0.1","0","0.9"],"stn":["0.0","0.3","0.4","-0.6"]}
p5804
asS'ans'
p5805
(lp5806
V3
p5807
asS'condition'
p5808
I1
ssS'u83BNT5ERIS'
p5809
(dp5810
S'ip'
p5811
(lp5812
(I0
I0
tp5813
asS'points'
p5814
I0
sS'condition'
p5815
I1
ssVmt_qwerty2
p5816
(dp5817
S'ip'
p5818
(lp5819
(I0
I0
tp5820
asS'points'
p5821
I0
sS'condition'
p5822
I0
ssVmt_A6KOTWP7N7RLU
p5823
(dp5824
S'code'
p5825
S'C1A2344443415R3249'
p5826
sS'last_claim'
p5827
I10
sS'bonus'
p5828
(lp5829
I12
aI4
aI2
aI12
aI12
aI12
aI4
aI2
aI15
aI15
asS'ip'
p5830
(lp5831
(I0
I0
tp5832
a(V0
p5833
I0
tp5834
a(V0
p5835
I0
tp5836
a(V0
p5837
I0
tp5838
a(V0
p5839
I0
tp5840
a(V0
p5841
I0
tp5842
a(V0
p5843
I0
tp5844
a(V0
p5845
I0
tp5846
a(V0
p5847
I0
tp5848
a(V0
p5849
I0
tp5850
a(V0
p5851
I0
tp5852
asS'time'
p5853
(lp5854
I1526677447
aI1526678099
aI1526678105
aI1526678110
aI1526678118
aI1526678124
aI1526678130
aI1526678139
aI1526678144
aI1526678149
aI1526678155
asS'allslider'
p5855
(lp5856
V{"rep":["0.2","0.4","0.4","0","0.2","0","0.0","0.0","0.6","0.3"],"stn":["-0.6","-0.6","-0.6","0.4","-0.6","0.4","0.4","0.0","-1.0","-0.8"]}
p5857
aV{"rep":["0","0","0","0","0","0","0","0","0.0","0"],"stn":["-1.0","0.7","-0.3","-1.0","-0.4","-1.0","-0.8","-0.4","0.6","-1.0"]}
p5858
aV{"rep":["0","0.1","0","0.0","0.2","0.0","0.2"],"stn":["1.0","0.8","0.6","1.0","1.0","1.0","0.8"]}
p5859
aV{"rep":["0","0","0","0.6","0.1","0.4","0","0"],"stn":["1.0","0.6","0.4","0.8","0.2","0.8","1.0","1.0"]}
p5860
aV{"rep":["0.1","0","0","0.1","0.1","0.3","0.1","0.7"],"stn":["1.0","0.8","0.8","1.0","0.8","0.8","0.6","1.0"]}
p5861
aV{"rep":["0","0","0","0.2","0","0.6","0.5","0","0.8","0"],"stn":["1.0","1.0","0.6","1.0","1.0","1.0","1.0","1.0","0.8","1.0"]}
p5862
aV{"rep":["0","0.1","0.3","0.1","0.4","0.4","0.4","0","0.3"],"stn":["1.0","0.8","0.5","0.4","0.8","-0.6","0.8","0.8","1.0"]}
p5863
aV{"rep":["1","0","0.1","0.7","0.2","0.0"],"stn":["0.4","0.8","0.8","0.6","0.4","1.0"]}
p5864
aV{"rep":["0","0"],"stn":["0.7","1.0"]}
p5865
aV{"rep":["0.1","0","0.2","0.1","0.3","0.3","0.7","0.5","1","0.7","0","0.2","0.0","1","1","0.3"],"stn":["0.6","0.8","0.6","1.0","0.8","0.5","0.5","0.0","1.0","1.0","1.0","0.5","0.8","0.8","0.3","0.8"]}
p5866
asS'ans'
p5867
(lp5868
V2
p5869
aV3
p5870
aV4
p5871
aV4
p5872
aV4
p5873
aV4
p5874
aV3
p5875
aV4
p5876
aV1
p5877
aV5
p5878
asS'total_bonus'
p5879
I90
sS'condition'
p5880
I1
ssVmt_A2PJBSDDN22XIX
p5881
(dp5882
S'ip'
p5883
(lp5884
(I0
I0
tp5885
a(V0
p5886
I20
tp5887
a(V0
p5888
I20
tp5889
a(V0
p5890
I10
tp5891
a(V0
p5892
I-20
tp5893
a(V0
p5894
I-10
tp5895
a(V0
p5896
I-10
tp5897
a(V0
p5898
I20
tp5899
a(V0
p5900
I-10
tp5901
asS'code'
p5902
S'C0P10R55518'
p5903
sS'condition'
p5904
I0
sS'points'
p5905
I20
ssVmt_AJM4334V07JDQ
p5906
(dp5907
S'ip'
p5908
(lp5909
(I0
I0
tp5910
a(V15
p5911
I14
tp5912
a(V17
p5913
I-4
tp5914
a(V5
p5915
I-8
tp5916
a(V5
p5917
I-8
tp5918
a(V1
p5919
I15
tp5920
a(V0
p5921
I2
tp5922
a(V4
p5923
I-2
tp5924
a(V4
p5925
I19
tp5926
asS'code'
p5927
S'C1P9R92934'
p5928
sS'condition'
p5929
I1
sS'points'
p5930
I28
ssS'uQPC6VFERB9'
p5931
(dp5932
S'last_claim'
p5933
I5
sS'ip'
p5934
(lp5935
(V0
p5936
I0
tp5937
asS'ans'
p5938
(lp5939
V4
p5940
asS'allslider'
p5941
(lp5942
V{"rep":["0.1","0","0","0.1","0.1","0.3","0.1","0.7"],"stn":["1.0","0.8","0.8","1.0","0.8","0.8","0.6","1.0"]}
p5943
asS'time'
p5944
(lp5945
I1526677532
asS'condition'
p5946
I1
ssVmt_A3RYI5HXC2MJLN
p5947
(dp5948
S'last_claim'
p5949
I1
sS'ip'
p5950
(lp5951
(I0
I0
tp5952
a(V36
p5953
I0
tp5954
asS'time'
p5955
(lp5956
I1526659662
aI1526659848
asS'allslider'
p5957
(lp5958
sS'ans'
p5959
(lp5960
V5
p5961
asS'condition'
p5962
I0
ssS'uIPS98OVNZ0'
p5963
(dp5964
S'ip'
p5965
(lp5966
(I0
I0
tp5967
asS'points'
p5968
I0
sS'condition'
p5969
I1
ssVmt_A3V8C77FN4FLUA
p5970
(dp5971
S'ip'
p5972
(lp5973
(I0
I0
tp5974
a(V0
p5975
I20
tp5976
a(V0
p5977
I20
tp5978
a(V0
p5979
I-20
tp5980
a(V0
p5981
I20
tp5982
a(V0
p5983
I-4
tp5984
a(V0
p5985
I15
tp5986
a(V0
p5987
I20
tp5988
a(V0
p5989
I-20
tp5990
a(V0
p5991
I20
tp5992
asS'code'
p5993
S'C1P51R47267'
p5994
sS'condition'
p5995
I1
sS'points'
p5996
I71
ssS'uMAOZWJ7CJ8'
p5997
(dp5998
S'last_claim'
p5999
I0
sS'ip'
p6000
(lp6001
(I0
I0
tp6002
asS'time'
p6003
(lp6004
I1526831207
asS'allslider'
p6005
(lp6006
sS'ans'
p6007
(lp6008
sS'condition'
p6009
I1
ssVmt_A2Z3VYYYAIOGHC
p6010
(dp6011
S'ip'
p6012
(lp6013
(I0
I0
tp6014
asS'points'
p6015
I0
sS'condition'
p6016
I1
ssS'uS1I4MHCVFD'
p6017
(dp6018
S'last_claim'
p6019
I30
sS'ip'
p6020
(lp6021
(V0
p6022
I0
tp6023
asS'ans'
p6024
(lp6025
V2
p6026
asS'allslider'
p6027
(lp6028
V{"rep":["0","0"],"stn":["0.8","0.6"]}
p6029
asS'time'
p6030
(lp6031
I1526677977
asS'condition'
p6032
I1
ssVmt_A3MSD8X8VC7ESQ
p6033
(dp6034
S'ip'
p6035
(lp6036
(I0
I0
tp6037
a(V1
p6038
I17
tp6039
a(V0
p6040
I20
tp6041
a(V0
p6042
I-13
tp6043
a(V0
p6044
I14
tp6045
a(V0
p6046
I0
tp6047
a(V0
p6048
I-12
tp6049
a(V0
p6050
I14
tp6051
asS'code'
p6052
S'C1P26R62658'
p6053
sS'condition'
p6054
I1
sS'points'
p6055
I40
ssVmt_a1
p6056
(dp6057
S'code'
p6058
S'C1A5432154321R1357'
p6059
sS'last_claim'
p6060
I10
sS'bonus'
p6061
(lp6062
I0
aI2
aI4
aI2
aI0
aI15
aI2
aI4
aI12
aI0
asS'ip'
p6063
(lp6064
(I0
I0
tp6065
a(V0
p6066
I0
tp6067
a(V0
p6068
I0
tp6069
a(V0
p6070
I0
tp6071
a(V0
p6072
I0
tp6073
a(V0
p6074
I0
tp6075
a(V0
p6076
I0
tp6077
a(V0
p6078
I0
tp6079
a(V0
p6080
I0
tp6081
a(V0
p6082
I0
tp6083
a(V0
p6084
I0
tp6085
asS'time'
p6086
(lp6087
I1526656296
aI1526656315
aI1526656318
aI1526656320
aI1526656323
aI1526656326
aI1526656330
aI1526656333
aI1526656335
aI1526656338
aI1526656342
asS'allslider'
p6088
(lp6089
sS'ans'
p6090
(lp6091
V5
p6092
aV4
p6093
aV3
p6094
aV2
p6095
aV1
p6096
aV5
p6097
aV4
p6098
aV3
p6099
aV2
p6100
aV1
p6101
asS'total_bonus'
p6102
I41
sS'condition'
p6103
I1
ssVmt_a2
p6104
(dp6105
S'code'
p6106
S'C0A1234512345R6595'
p6107
sS'last_claim'
p6108
I10
sS'bonus'
p6109
(lp6110
I15
aI12
aI4
aI12
aI15
aI0
aI12
aI4
aI2
aI15
asS'ip'
p6111
(lp6112
(I0
I0
tp6113
a(V5
p6114
I0
tp6115
a(V0
p6116
I0
tp6117
a(V0
p6118
I0
tp6119
a(V0
p6120
I0
tp6121
a(V0
p6122
I0
tp6123
a(V0
p6124
I0
tp6125
a(V0
p6126
I0
tp6127
a(V0
p6128
I0
tp6129
a(V0
p6130
I0
tp6131
a(V0
p6132
I0
tp6133
asS'ans'
p6134
(lp6135
V1
p6136
aV2
p6137
aV3
p6138
aV4
p6139
aV5
p6140
aV1
p6141
aV2
p6142
aV3
p6143
aV4
p6144
aV5
p6145
asS'allslider'
p6146
(lp6147
V{"rep":["0.2","0.4","0.4","0","0.2","0","0.0","0.0","0.6","0.3"],"stn":["-0.9","-0.9","-0.9","-0.9","-0.8","0.6","0.7","0","-0.2","-0.1"]}
p6148
aV{"rep":["0","0","0","0","0","0","0","0","0.0","0"],"stn":["-0.3","0.7","0.6","-0.6","0.8","0.1","0.2","0.8","0.9","0.3"]}
p6149
aV{"rep":["0","0.1","0","0.0","0.2","0.0","0.2"],"stn":["0.8","0.1","0.1","0.8","0.8","0.9","0.7"]}
p6150
aV{"rep":["0","0","0","0.6","0.1","0.4","0","0"],"stn":["0.4","0.9","0.7","0.3","0.7","0.8","0.8","0.8"]}
p6151
aV{"rep":["0.1","0","0","0.1","0.1","0.3","0.1","0.7"],"stn":["0.9","0.8","0.9","0.9","0.9","0.9","0.8","0.8"]}
p6152
aV{"rep":["0","0","0","0.2","0","0.6","0.5","0","0.8","0"],"stn":["0.8","0.6","0.8","0.6","0.6","0.8","0.7","0.7","0.7","0.8"]}
p6153
aV{"rep":["0","0.1","0.3","0.1","0.4","0.4","0.4","0","0.3"],"stn":["0.7","0.7","0.9","0.8","0.9","-0.4","0.9","0.7","0.7"]}
p6154
aV{"rep":["1","0","0.1","0.7","0.2","0.0"],"stn":["0.6","0","0.6","0.7","0.4","0.5"]}
p6155
aV{"rep":["0","0"],"stn":["0.6","0.6"]}
p6156
aV{"rep":["0.1","0","0.2","0.1","0.3","0.3","0.7","0.5","1","0.7","0","0.2","0.0","1","1","0.3"],"stn":["0.8","0.2","0.9","0.7","0.6","0.1","0.9","0.3","0.9","0.5","0.6","0.7","0.7","0.8","0.6","0.8"]}
p6157
asS'time'
p6158
(lp6159
I1526677108
aI1526677116
aI1526677119
aI1526677122
aI1526677124
aI1526677127
aI1526677130
aI1526677139
aI1526677141
aI1526677144
aI1526677148
asS'total_bonus'
p6160
I91
sS'condition'
p6161
I0
ssVmt_A3A381KE5Q2ALE
p6162
(dp6163
S'ip'
p6164
(lp6165
(I0
I0
tp6166
a(V5
p6167
I-20
tp6168
a(V0
p6169
I20
tp6170
a(V0
p6171
I15
tp6172
a(V0
p6173
I20
tp6174
a(V0
p6175
I20
tp6176
a(V0
p6177
I-10
tp6178
asS'code'
p6179
S'C1P45R90933'
p6180
sS'condition'
p6181
I1
sS'points'
p6182
I45
ssS'uZGEOURJJ4O'
p6183
(dp6184
S'ip'
p6185
(lp6186
(I0
I0
tp6187
asS'points'
p6188
I0
sS'condition'
p6189
I1
ssVmt_A1GYBKY3JMM0PW
p6190
(dp6191
S'code'
p6192
S'C1A1145553525R4754'
p6193
sS'last_claim'
p6194
I10
sS'bonus'
p6195
(lp6196
I15
aI15
aI2
aI15
aI15
aI15
aI4
aI0
aI12
aI15
asS'ip'
p6197
(lp6198
(I0
I0
tp6199
a(V0
p6200
I0
tp6201
a(V0
p6202
I0
tp6203
a(V0
p6204
I0
tp6205
a(V0
p6206
I0
tp6207
a(V0
p6208
I0
tp6209
a(V0
p6210
I0
tp6211
a(V0
p6212
I0
tp6213
a(V0
p6214
I0
tp6215
a(V0
p6216
I0
tp6217
a(V0
p6218
I0
tp6219
asS'ans'
p6220
(lp6221
V1
p6222
aV1
p6223
aV4
p6224
aV5
p6225
aV5
p6226
aV5
p6227
aV3
p6228
aV5
p6229
aV2
p6230
aV5
p6231
asS'allslider'
p6232
(lp6233
sS'time'
p6234
(lp6235
I1526657674
aI1526657741
aI1526657767
aI1526657821
aI1526657869
aI1526657892
aI1526657933
aI1526657959
aI1526657977
aI1526657999
aI1526658017
asS'total_bonus'
p6236
I108
sS'condition'
p6237
I1
ssVmt_A1FP3SH704X01V
p6238
(dp6239
S'ip'
p6240
(lp6241
(I0
I0
tp6242
a(V0
p6243
I20
tp6244
a(V0
p6245
I18
tp6246
a(V0
p6247
I-20
tp6248
a(V0
p6249
I20
tp6250
a(V0
p6251
I0
tp6252
a(V0
p6253
I15
tp6254
asS'code'
p6255
S'C0P53R54538'
p6256
sS'condition'
p6257
I0
sS'points'
p6258
I53
ssVmt_A3USP1ZP069KCK
p6259
(dp6260
S'ip'
p6261
(lp6262
(I0
I0
tp6263
a(V1
p6264
I11
tp6265
a(V1
p6266
I17
tp6267
a(V1
p6268
I-15
tp6269
a(V0
p6270
I14
tp6271
a(V0
p6272
I0
tp6273
a(V0
p6274
I18
tp6275
asS'code'
p6276
S'C1P45R48614'
p6277
sS'condition'
p6278
I1
sS'points'
p6279
I45
ssVmt_A3G6L97AX9KR7F
p6280
(dp6281
S'ip'
p6282
(lp6283
(I0
I0
tp6284
a(V0
p6285
I20
tp6286
a(V0
p6287
I20
tp6288
a(V0
p6289
I-20
tp6290
a(V0
p6291
I20
tp6292
a(V0
p6293
I0
tp6294
a(V0
p6295
I20
tp6296
asS'code'
p6297
S'C0P60R26651'
p6298
sS'condition'
p6299
I0
sS'points'
p6300
I60
ssS'uEEFUGET0ZM'
p6301
(dp6302
S'last_claim'
p6303
I26
sS'ip'
p6304
(lp6305
(V0
p6306
I0
tp6307
asS'time'
p6308
(lp6309
I1526677785
asS'allslider'
p6310
(lp6311
V{"rep":["0.3","0.3","0.1","0","0","0","0"],"stn":["0.5","0.8","0.4","0.4","0.2","0.0","0.6"]}
p6312
asS'ans'
p6313
(lp6314
V3
p6315
asS'condition'
p6316
I1
ssS'uY737L9OUUM'
p6317
(dp6318
S'last_claim'
p6319
I0
sS'ip'
p6320
(lp6321
(I0
I0
tp6322
asS'ans'
p6323
(lp6324
sS'allslider'
p6325
(lp6326
sS'time'
p6327
(lp6328
I1526659917
asS'condition'
p6329
I1
ssVmt_A2FTH6L9PO7MYN
p6330
(dp6331
S'ip'
p6332
(lp6333
(I0
I0
tp6334
a(V0
p6335
I-10
tp6336
a(V0
p6337
I-10
tp6338
a(V0
p6339
I-10
tp6340
a(V0
p6341
I-10
tp6342
a(V0
p6343
I10
tp6344
a(V0
p6345
I11
tp6346
a(V0
p6347
I-10
tp6348
a(V0
p6349
I10
tp6350
a(V0
p6351
I10
tp6352
a(V0
p6353
I10
tp6354
a(V0
p6355
I-10
tp6356
a(V0
p6357
I10
tp6358
a(V0
p6359
I-10
tp6360
a(V0
p6361
I-10
tp6362
a(V0
p6363
I10
tp6364
a(V0
p6365
I10
tp6366
a(V0
p6367
I10
tp6368
a(V0
p6369
I-10
tp6370
a(V0
p6371
I-10
tp6372
a(V0
p6373
I-10
tp6374
a(V0
p6375
I-10
tp6376
a(V0
p6377
I10
tp6378
a(V0
p6379
I-10
tp6380
a(V0
p6381
I10
tp6382
a(V0
p6383
I10
tp6384
a(V0
p6385
I10
tp6386
a(V0
p6387
I-10
tp6388
a(V0
p6389
I10
tp6390
a(V0
p6391
I10
tp6392
a(V0
p6393
I-10
tp6394
a(V0
p6395
I-10
tp6396
a(V0
p6397
I10
tp6398
a(V0
p6399
I-10
tp6400
a(V0
p6401
I10
tp6402
a(V0
p6403
I10
tp6404
a(V0
p6405
I10
tp6406
a(V0
p6407
I10
tp6408
asS'code'
p6409
S'C0P-19R80257'
p6410
sS'condition'
p6411
I0
sS'points'
p6412
I31
ssVmt_ANPCXN619ACW9
p6413
(dp6414
S'ip'
p6415
(lp6416
(I0
I0
tp6417
a(V3
p6418
I-17
tp6419
a(V0
p6420
I-13
tp6421
a(V0
p6422
I-14
tp6423
a(V0
p6424
I16
tp6425
a(V0
p6426
I0
tp6427
a(I0
I0
tp6428
a(V0
p6429
I9
tp6430
a(V0
p6431
I12
tp6432
a(V0
p6433
I6
tp6434
a(V0
p6435
I16
tp6436
a(V0
p6437
I0
tp6438
a(V0
p6439
I15
tp6440
asS'code'
p6441
S'C1P30R24448'
p6442
sS'condition'
p6443
I1
sS'points'
p6444
I30
ssS'u99BFYNRAWA'
p6445
(dp6446
S'ip'
p6447
(lp6448
(I0
I0
tp6449
asS'points'
p6450
I0
sS'condition'
p6451
I1
ssVmt_A5I4Y0GXJM69D
p6452
(dp6453
S'ip'
p6454
(lp6455
(I0
I0
tp6456
a(V0
p6457
I-10
tp6458
asS'points'
p6459
I-10
sS'condition'
p6460
I0
ssS'u24OALB6IR7'
p6461
(dp6462
S'last_claim'
p6463
I2
sS'ip'
p6464
(lp6465
(V0
p6466
I0
tp6467
asS'time'
p6468
(lp6469
I1526677494
asS'allslider'
p6470
(lp6471
V{"rep":["0","0","0","0","0","0","0","0","0.0","0"],"stn":["-1.0","0.7","-0.3","-1.0","-0.4","-1.0","-0.8","-0.4","0.6","-1.0"]}
p6472
asS'ans'
p6473
(lp6474
V2
p6475
asS'condition'
p6476
I1
ssS'uPJYW7M5FPS'
p6477
(dp6478
S'ip'
p6479
(lp6480
(I0
I0
tp6481
asS'points'
p6482
I0
sS'condition'
p6483
I1
ssVmt_A2ORPKVJKI0EIO
p6484
(dp6485
S'ip'
p6486
(lp6487
(I0
I0
tp6488
a(V5
p6489
I-19
tp6490
a(V4
p6491
I20
tp6492
a(V2
p6493
I18
tp6494
a(V4
p6495
I20
tp6496
a(V5
p6497
I-20
tp6498
a(V0
p6499
I20
tp6500
asS'code'
p6501
S'C1P39R68070'
p6502
sS'condition'
p6503
I1
sS'points'
p6504
I39
ssVmt_A2ZJAEL03VTZ8
p6505
(dp6506
S'ip'
p6507
(lp6508
(I0
I0
tp6509
a(V0
p6510
I16
tp6511
a(V0
p6512
I20
tp6513
a(V0
p6514
I-20
tp6515
a(V0
p6516
I20
tp6517
a(V0
p6518
I0
tp6519
a(V0
p6520
I20
tp6521
a(V0
p6522
I-20
tp6523
asS'code'
p6524
S'C0P56R36565'
p6525
sS'condition'
p6526
I0
sS'points'
p6527
I36
ssVmt_A1AGI0AETM5P5S
p6528
(dp6529
S'ip'
p6530
(lp6531
(I0
I0
tp6532
asS'points'
p6533
I0
sS'condition'
p6534
I1
ssVmt_A3MFK5UEUG95M3
p6535
(dp6536
S'ip'
p6537
(lp6538
(I0
I0
tp6539
a(V8
p6540
I20
tp6541
a(V10
p6542
I20
tp6543
a(V6
p6544
I-15
tp6545
a(V3
p6546
I20
tp6547
a(V0
p6548
I0
tp6549
a(V8
p6550
I20
tp6551
asS'code'
p6552
S'C1P65R58056'
p6553
sS'condition'
p6554
I1
sS'points'
p6555
I65
ssVmt_A3M88KA3AW07B3
p6556
(dp6557
S'ip'
p6558
(lp6559
(I0
I0
tp6560
a(V25
p6561
I14
tp6562
a(V3
p6563
I18
tp6564
a(V0
p6565
I-19
tp6566
a(V0
p6567
I20
tp6568
a(V0
p6569
I0
tp6570
a(V0
p6571
I10
tp6572
asS'code'
p6573
S'C1P43R48894'
p6574
sS'condition'
p6575
I1
sS'points'
p6576
I43
ssVmt_A2FLOH4DM8A4ZS
p6577
(dp6578
S'ip'
p6579
(lp6580
(I0
I0
tp6581
a(V1
p6582
I-12
tp6583
a(V4
p6584
I-10
tp6585
a(V0
p6586
I-10
tp6587
a(V0
p6588
I-20
tp6589
a(V0
p6590
I20
tp6591
a(V0
p6592
I20
tp6593
a(V0
p6594
I-20
tp6595
asS'code'
p6596
S'C1P-12R83393'
p6597
sS'condition'
p6598
V1
p6599
sS'points'
p6600
I-32
ssS'uAKDJXCN7XP'
p6601
(dp6602
S'ip'
p6603
(lp6604
(I0
I0
tp6605
asS'points'
p6606
I0
sS'condition'
p6607
I1
ssVmt_A2H3RN00VRF2AI
p6608
(dp6609
S'ip'
p6610
(lp6611
(I0
I0
tp6612
a(V4
p6613
I-13
tp6614
a(V0
p6615
I-10
tp6616
a(V0
p6617
I10
tp6618
a(V0
p6619
I12
tp6620
a(V0
p6621
I0
tp6622
a(V3
p6623
I15
tp6624
asS'code'
p6625
S'C1P14R90845'
p6626
sS'condition'
p6627
I1
sS'points'
p6628
I14
ssVmt_A2WGW5Y3ZFBDEC
p6629
(dp6630
S'ip'
p6631
(lp6632
(I0
I0
tp6633
a(V0
p6634
I-13
tp6635
a(V0
p6636
I10
tp6637
a(V0
p6638
I-12
tp6639
a(V0
p6640
I15
tp6641
a(V0
p6642
I0
tp6643
a(V0
p6644
I18
tp6645
a(V0
p6646
I-15
tp6647
asS'code'
p6648
S'C1P18R35486'
p6649
sS'condition'
p6650
V1
p6651
sS'points'
p6652
I3
ssS'uUOWRSCPCMC'
p6653
(dp6654
S'ip'
p6655
(lp6656
(I0
I0
tp6657
asS'points'
p6658
I0
sS'condition'
p6659
I1
ssS'u1L4SNIE8ML'
p6660
(dp6661
S'ip'
p6662
(lp6663
(I0
I0
tp6664
asS'points'
p6665
I0
sS'condition'
p6666
I1
ssS'uBOP9CBSVYO'
p6667
(dp6668
S'last_claim'
p6669
I34
sS'ip'
p6670
(lp6671
(V0
p6672
I0
tp6673
asS'ans'
p6674
(lp6675
V3
p6676
asS'allslider'
p6677
(lp6678
V{"rep":["0.1","0.0"],"stn":["0.4","0.6"]}
p6679
asS'time'
p6680
(lp6681
I1526678052
asS'condition'
p6682
I1
ssS'uA9AVLGPREA'
p6683
(dp6684
S'ip'
p6685
(lp6686
(I0
I0
tp6687
asS'points'
p6688
I0
sS'condition'
p6689
I1
ssVmt_A18Z648BYCZXVJ
p6690
(dp6691
S'ip'
p6692
(lp6693
(I0
I0
tp6694
a(V0
p6695
I3
tp6696
a(V0
p6697
I-17
tp6698
a(V0
p6699
I-16
tp6700
a(V0
p6701
I16
tp6702
a(V0
p6703
I16
tp6704
a(V0
p6705
I14
tp6706
a(V0
p6707
I-20
tp6708
a(V0
p6709
I12
tp6710
a(V0
p6711
I-13
tp6712
a(V0
p6713
I16
tp6714
asS'code'
p6715
S'C0P16R84977'
p6716
sS'condition'
p6717
I0
sS'points'
p6718
I11
ssVmt_A23KAJRDVCVGOE
p6719
(dp6720
S'ip'
p6721
(lp6722
(I0
I0
tp6723
a(V5
p6724
I-15
tp6725
a(V0
p6726
I20
tp6727
a(V2
p6728
I11
tp6729
a(V0
p6730
I-16
tp6731
a(V2
p6732
I-7
tp6733
a(V0
p6734
I14
tp6735
a(V0
p6736
I10
tp6737
a(V0
p6738
I10
tp6739
asS'code'
p6740
S'C1P7R18720'
p6741
sS'condition'
p6742
I1
sS'points'
p6743
I27
ssVmt_A1F4N58CAX8IMK
p6744
(dp6745
S'ip'
p6746
(lp6747
(I0
I0
tp6748
a(V1
p6749
I20
tp6750
a(V0
p6751
I20
tp6752
a(V0
p6753
I-10
tp6754
a(V0
p6755
I20
tp6756
a(V0
p6757
I6
tp6758
a(V0
p6759
I20
tp6760
asS'code'
p6761
S'C1P76R97161'
p6762
sS'condition'
p6763
I1
sS'points'
p6764
I76
ssVmt_A1R9PH4LOMKZ13
p6765
(dp6766
S'ip'
p6767
(lp6768
(I0
I0
tp6769
a(V8
p6770
I13
tp6771
a(V9
p6772
I20
tp6773
a(V5
p6774
I-11
tp6775
a(V6
p6776
I7
tp6777
a(V3
p6778
I3
tp6779
a(V9
p6780
I14
tp6781
a(V9
p6782
I3
tp6783
asS'code'
p6784
S'C1P46R18549'
p6785
sS'condition'
p6786
I1
sS'points'
p6787
I49
ssVmt_A2R8IV2PWFTY00
p6788
(dp6789
S'ip'
p6790
(lp6791
(I0
I0
tp6792
a(V13
p6793
I17
tp6794
a(V8
p6795
I18
tp6796
a(V8
p6797
I-12
tp6798
a(V0
p6799
I19
tp6800
a(V0
p6801
I0
tp6802
a(V2
p6803
I13
tp6804
a(V0
p6805
I-12
tp6806
asS'code'
p6807
S'C0P55R32165'
p6808
sS'condition'
p6809
I0
sS'points'
p6810
I43
ssVmt_AOKTAHY4F4J2B
p6811
(dp6812
S'ip'
p6813
(lp6814
(I0
I0
tp6815
a(V0
p6816
I-14
tp6817
a(V0
p6818
I-20
tp6819
a(V0
p6820
I20
tp6821
a(V0
p6822
I20
tp6823
a(V0
p6824
I20
tp6825
a(V0
p6826
I20
tp6827
asS'code'
p6828
S'C0P46R11446'
p6829
sS'condition'
p6830
I0
sS'points'
p6831
I46
ssVmt_ Betty J Porter  
p6832
(dp6833
S'ip'
p6834
(lp6835
(I0
I0
tp6836
a(V13
p6837
I15
tp6838
a(V7
p6839
I-15
tp6840
a(V5
p6841
I15
tp6842
a(V6
p6843
I18
tp6844
a(V7
p6845
I17
tp6846
a(V9
p6847
I20
tp6848
a(V8
p6849
I10
tp6850
a(V5
p6851
I13
tp6852
a(V2
p6853
I15
tp6854
a(V11
p6855
I15
tp6856
a(V1
p6857
I14
tp6858
a(V1
p6859
I-10
tp6860
a(V8
p6861
I-15
tp6862
a(V0
p6863
I-14
tp6864
a(V0
p6865
I14
tp6866
a(V0
p6867
I-8
tp6868
a(V0
p6869
I-15
tp6870
a(V0
p6871
I-12
tp6872
a(V0
p6873
I-10
tp6874
a(V0
p6875
I10
tp6876
a(V0
p6877
I-13
tp6878
a(V0
p6879
I13
tp6880
a(V0
p6881
I-10
tp6882
a(V0
p6883
I10
tp6884
a(V0
p6885
I-10
tp6886
a(V0
p6887
I10
tp6888
a(V0
p6889
I-10
tp6890
a(V0
p6891
I-10
tp6892
a(V0
p6893
I10
tp6894
a(V0
p6895
I-10
tp6896
a(V0
p6897
I13
tp6898
a(V0
p6899
I-18
tp6900
a(V0
p6901
I-14
tp6902
a(V0
p6903
I-13
tp6904
a(V0
p6905
I15
tp6906
asS'code'
p6907
S'C0P70R7156'
p6908
sS'condition'
p6909
I0
sS'points'
p6910
I40
ssVmt_AR1IWBDA7MC86
p6911
(dp6912
S'ip'
p6913
(lp6914
(I0
I0
tp6915
a(V4
p6916
I15
tp6917
a(V2
p6918
I17
tp6919
a(V0
p6920
I-13
tp6921
a(V0
p6922
I16
tp6923
a(V2
p6924
I16
tp6925
a(V4
p6926
I18
tp6927
asS'code'
p6928
S'C0P69R38296'
p6929
sS'condition'
p6930
V0
p6931
sS'points'
p6932
I69
ssVmt_A1S343QA01CPGR
p6933
(dp6934
S'ip'
p6935
(lp6936
(I0
I0
tp6937
a(V0
p6938
I19
tp6939
a(V0
p6940
I20
tp6941
a(V0
p6942
I16
tp6943
a(V0
p6944
I16
tp6945
a(V0
p6946
I19
tp6947
a(V0
p6948
I16
tp6949
a(V0
p6950
I19
tp6951
asS'code'
p6952
S'C0P106R84148'
p6953
sS'condition'
p6954
I0
sS'points'
p6955
I125
ssVmt_AZ9BU8QI4YKF3
p6956
(dp6957
S'ip'
p6958
(lp6959
(I0
I0
tp6960
a(V16
p6961
I-16
tp6962
a(V15
p6963
I-12
tp6964
a(V0
p6965
I-15
tp6966
a(V3
p6967
I-5
tp6968
a(V0
p6969
I-15
tp6970
a(V0
p6971
I-14
tp6972
a(V0
p6973
I-17
tp6974
a(V0
p6975
I5
tp6976
a(V0
p6977
I14
tp6978
a(V0
p6979
I-16
tp6980
a(V0
p6981
I16
tp6982
a(V0
p6983
I15
tp6984
a(V0
p6985
I-19
tp6986
a(V0
p6987
I-15
tp6988
a(V0
p6989
I18
tp6990
a(V0
p6991
I-14
tp6992
asS'code'
p6993
S'C1P-77R65196'
p6994
sS'condition'
p6995
I1
sS'points'
p6996
I-90
ssVmt_A22JBMOHQKHTSS
p6997
(dp6998
S'ip'
p6999
(lp7000
(I0
I0
tp7001
a(V2
p7002
I15
tp7003
a(V0
p7004
I20
tp7005
a(V0
p7006
I-2
tp7007
a(V0
p7008
I-5
tp7009
a(V0
p7010
I-20
tp7011
a(V0
p7012
I-20
tp7013
asS'code'
p7014
S'C1P-12R34654'
p7015
sS'condition'
p7016
I1
sS'points'
p7017
I-12
ssVmt_AN7ZJTSOR3532
p7018
(dp7019
S'ip'
p7020
(lp7021
(I0
I0
tp7022
a(V0
p7023
I20
tp7024
a(V0
p7025
I20
tp7026
a(V0
p7027
I-10
tp7028
a(V0
p7029
I20
tp7030
a(V0
p7031
I20
tp7032
a(V0
p7033
I20
tp7034
asS'code'
p7035
S'C0P90R7413'
p7036
sS'condition'
p7037
I0
sS'points'
p7038
I90
ssVmt_A1HN2W2M73O741
p7039
(dp7040
S'ip'
p7041
(lp7042
(I0
I0
tp7043
a(V0
p7044
I18
tp7045
a(V0
p7046
I10
tp7047
a(V0
p7048
I-18
tp7049
a(V0
p7050
I10
tp7051
a(V0
p7052
I0
tp7053
a(V0
p7054
I15
tp7055
a(V0
p7056
I-15
tp7057
a(V0
p7058
I-17
tp7059
asS'code'
p7060
S'C1P35R57625'
p7061
sS'condition'
p7062
I1
sS'points'
p7063
I3
ssS'u4LVMDP7L9T'
p7064
(dp7065
S'ip'
p7066
(lp7067
(I0
I0
tp7068
asS'points'
p7069
I0
sS'condition'
p7070
I1
ssS'uZLJS8V04RH'
p7071
(dp7072
S'last_claim'
p7073
I6
sS'ip'
p7074
(lp7075
(V0
p7076
I0
tp7077
asS'time'
p7078
(lp7079
I1526677542
asS'allslider'
p7080
(lp7081
V{"rep":["0","0","0","0.2","0","0.6","0.5","0","0.8","0"],"stn":["1.0","1.0","0.6","1.0","1.0","1.0","1.0","1.0","0.8","1.0"]}
p7082
asS'ans'
p7083
(lp7084
V4
p7085
asS'condition'
p7086
I1
ssVmt_A3VTOW7WLPTBRR
p7087
(dp7088
S'ip'
p7089
(lp7090
(I0
I0
tp7091
a(V1
p7092
I-14
tp7093
a(V0
p7094
I15
tp7095
a(V0
p7096
I-12
tp7097
a(V0
p7098
I17
tp7099
a(V0
p7100
I0
tp7101
a(V0
p7102
I14
tp7103
asS'code'
p7104
S'C0P20R9403'
p7105
sS'condition'
p7106
V0
p7107
sS'points'
p7108
I20
ssS'uNNX4DXK8XE'
p7109
(dp7110
S'last_claim'
p7111
I24
sS'ip'
p7112
(lp7113
(V0
p7114
I0
tp7115
asS'ans'
p7116
(lp7117
V2
p7118
asS'allslider'
p7119
(lp7120
V{"rep":["0.7","0"],"stn":["1.0","-0.8"]}
p7121
asS'time'
p7122
(lp7123
I1526677765
asS'condition'
p7124
I1
ssVmt_A3VG2LUKQLXCBL
p7125
(dp7126
S'ip'
p7127
(lp7128
(I0
I0
tp7129
a(V0
p7130
I-14
tp7131
a(V0
p7132
I15
tp7133
a(V0
p7134
I15
tp7135
a(V0
p7136
I10
tp7137
a(V0
p7138
I0
tp7139
a(V0
p7140
I20
tp7141
asS'code'
p7142
S'C0P46R19841'
p7143
sS'condition'
p7144
I0
sS'points'
p7145
I46
ssVmt_A2ZDK0Y5466BXN
p7146
(dp7147
S'ip'
p7148
(lp7149
(I0
I0
tp7150
a(V0
p7151
I20
tp7152
a(V0
p7153
I20
tp7154
a(V0
p7155
I-20
tp7156
a(V0
p7157
I20
tp7158
a(V0
p7159
I0
tp7160
a(V0
p7161
I20
tp7162
asS'code'
p7163
S'C0P60R60973'
p7164
sS'condition'
p7165
I0
sS'points'
p7166
I60
ssVmt_A3QEVWUSBTD47D
p7167
(dp7168
S'ip'
p7169
(lp7170
(I0
I0
tp7171
a(V3
p7172
I14
tp7173
a(V3
p7174
I16
tp7175
a(V0
p7176
I-19
tp7177
a(V0
p7178
I19
tp7179
a(V0
p7180
I18
tp7181
a(V0
p7182
I17
tp7183
a(V0
p7184
I-18
tp7185
a(V0
p7186
I10
tp7187
a(V0
p7188
I-14
tp7189
a(V0
p7190
I17
tp7191
a(V0
p7192
I16
tp7193
asS'code'
p7194
S'C0P65R92521'
p7195
sS'condition'
p7196
I0
sS'points'
p7197
I76
ssS'uKZ7TAHEMMS'
p7198
(dp7199
S'ip'
p7200
(lp7201
(I0
I0
tp7202
asS'points'
p7203
I0
sS'condition'
p7204
I1
ssVmt_A16G6PPH1INQL8
p7205
(dp7206
S'ip'
p7207
(lp7208
(I0
I0
tp7209
a(V0
p7210
I20
tp7211
a(V0
p7212
I20
tp7213
a(V0
p7214
I-20
tp7215
a(V0
p7216
I20
tp7217
a(V0
p7218
I20
tp7219
a(V0
p7220
I20
tp7221
asS'code'
p7222
S'C0P80R62864'
p7223
sS'condition'
p7224
I0
sS'points'
p7225
I80
ssS'uZYGSEWWKMD'
p7226
(dp7227
S'ip'
p7228
(lp7229
(I0
I0
tp7230
asS'points'
p7231
I0
sS'condition'
p7232
I1
ssVmt_A3QLRC0K1HG9E0
p7233
(dp7234
S'ip'
p7235
(lp7236
(I0
I0
tp7237
a(V0
p7238
I-18
tp7239
a(V0
p7240
I10
tp7241
a(V0
p7242
I18
tp7243
a(V0
p7244
I-18
tp7245
a(V0
p7246
I-18
tp7247
a(V0
p7248
I19
tp7249
asS'code'
p7250
S'C0P-7R59511'
p7251
sS'condition'
p7252
I0
sS'points'
p7253
I-7
ssVmt_A12SMSQ6D5227J
p7254
(dp7255
S'ip'
p7256
(lp7257
(I0
I0
tp7258
a(V0
p7259
I19
tp7260
a(V0
p7261
I20
tp7262
a(V0
p7263
I-20
tp7264
a(V0
p7265
I20
tp7266
a(V0
p7267
I0
tp7268
a(V0
p7269
I14
tp7270
asS'code'
p7271
S'C0P53R53061'
p7272
sS'condition'
p7273
I0
sS'points'
p7274
I53
ssVmt_A3908297ZI3LES
p7275
(dp7276
S'ip'
p7277
(lp7278
(I0
I0
tp7279
a(V0
p7280
I-10
tp7281
a(V0
p7282
I10
tp7283
a(V0
p7284
I12
tp7285
a(V0
p7286
I-10
tp7287
a(V0
p7288
I-20
tp7289
a(V0
p7290
I-10
tp7291
a(V0
p7292
I-10
tp7293
a(V0
p7294
I10
tp7295
a(V0
p7296
I10
tp7297
a(V0
p7298
I-10
tp7299
a(V0
p7300
I-10
tp7301
a(V0
p7302
I-10
tp7303
a(V0
p7304
I10
tp7305
asS'code'
p7306
S'C1P-28R82491'
p7307
sS'condition'
p7308
I1
sS'points'
p7309
I-38
ssVmt_A1ZN6V0PU8VVAH
p7310
(dp7311
S'ip'
p7312
(lp7313
(I0
I0
tp7314
a(V0
p7315
I14
tp7316
a(V0
p7317
I17
tp7318
a(V0
p7319
I-13
tp7320
a(V0
p7321
I12
tp7322
a(V0
p7323
I0
tp7324
a(V0
p7325
I17
tp7326
a(V0
p7327
I10
tp7328
a(V0
p7329
I-15
tp7330
a(V0
p7331
I13
tp7332
asS'code'
p7333
S'C0P47R31515'
p7334
sS'condition'
p7335
I0
sS'points'
p7336
I55
ssVmt_A3K5TRS85I16I9
p7337
(dp7338
S'ip'
p7339
(lp7340
(I0
I0
tp7341
a(V3
p7342
I2
tp7343
a(V0
p7344
I5
tp7345
a(V0
p7346
I4
tp7347
a(V0
p7348
I-4
tp7349
a(V0
p7350
I-18
tp7351
a(V0
p7352
I-20
tp7353
a(V0
p7354
I-20
tp7355
a(V0
p7356
I-10
tp7357
a(V0
p7358
I10
tp7359
a(V0
p7360
I17
tp7361
asS'code'
p7362
S'C1P-31R72117'
p7363
sS'condition'
p7364
I1
sS'points'
p7365
I-34
ssS'u7XFZNAVEH9'
p7366
(dp7367
S'last_claim'
p7368
I17
sS'ip'
p7369
(lp7370
(V0
p7371
I0
tp7372
asS'time'
p7373
(lp7374
I1526677681
asS'allslider'
p7375
(lp7376
V{"rep":["0.1","0.6","0.3","0.3","0.3","0.3","0.3","0.1","0.5","1","0","0.3","0","0.6"],"stn":["0.0","0.8","0.5","1.0","1.0","1.0","1.0","1.0","0.3","0.4","0.4","0.7","0.4","0.7"]}
p7377
asS'ans'
p7378
(lp7379
V4
p7380
asS'condition'
p7381
I1
ssS'u99B6M2YUCL'
p7382
(dp7383
S'ip'
p7384
(lp7385
(I0
I0
tp7386
asS'points'
p7387
I0
sS'condition'
p7388
I1
ssVmt_A1689SP9SJBJDA
p7389
(dp7390
S'ip'
p7391
(lp7392
(I0
I0
tp7393
a(V1
p7394
I-16
tp7395
a(V0
p7396
I-18
tp7397
a(V0
p7398
I-20
tp7399
a(V0
p7400
I20
tp7401
a(V0
p7402
I20
tp7403
a(V0
p7404
I20
tp7405
a(V0
p7406
I-20
tp7407
a(V0
p7408
I-20
tp7409
a(V0
p7410
I-20
tp7411
a(V0
p7412
I20
tp7413
a(V0
p7414
I20
tp7415
a(V0
p7416
I-20
tp7417
a(V0
p7418
I-20
tp7419
a(V0
p7420
I20
tp7421
a(V0
p7422
I20
tp7423
a(V0
p7424
I-20
tp7425
a(V0
p7426
I20
tp7427
a(V0
p7428
I-20
tp7429
a(V0
p7430
I20
tp7431
a(V0
p7432
I-19
tp7433
a(V0
p7434
I20
tp7435
a(V0
p7436
I20
tp7437
a(V0
p7438
I-20
tp7439
asS'code'
p7440
S'C1P6R7252'
p7441
sS'condition'
p7442
I1
sS'points'
p7443
I-13
ssS'u8CBX7DJKXQ'
p7444
(dp7445
S'ip'
p7446
(lp7447
(I0
I0
tp7448
asS'points'
p7449
I0
sS'condition'
p7450
I1
ssS'uX2U6OVU3T3'
p7451
(dp7452
S'ip'
p7453
(lp7454
(I0
I0
tp7455
asS'points'
p7456
I0
sS'condition'
p7457
I1
ssVmt_A37EV8RZ82WT8E
p7458
(dp7459
S'ip'
p7460
(lp7461
(I0
I0
tp7462
a(V8
p7463
I14
tp7464
a(V22
p7465
I20
tp7466
a(V9
p7467
I-20
tp7468
a(V1
p7469
I20
tp7470
a(V0
p7471
I-14
tp7472
a(V0
p7473
I20
tp7474
asS'code'
p7475
S'C1P40R81046'
p7476
sS'condition'
p7477
I1
sS'points'
p7478
I40
ssVmt_A1SIUJEL2LS8UO
p7479
(dp7480
S'ip'
p7481
(lp7482
(I0
I0
tp7483
a(V11
p7484
I-16
tp7485
a(V8
p7486
I-19
tp7487
a(V9
p7488
I20
tp7489
a(V6
p7490
I20
tp7491
a(V3
p7492
I20
tp7493
a(V5
p7494
I10
tp7495
asS'code'
p7496
S'C1P35R35027'
p7497
sS'condition'
p7498
I1
sS'points'
p7499
I35
ssVmt_A1C3A6UO12AFH4
p7500
(dp7501
S'ip'
p7502
(lp7503
(I0
I0
tp7504
a(V4
p7505
I14
tp7506
a(V7
p7507
I14
tp7508
a(V0
p7509
I-14
tp7510
a(V0
p7511
I-14
tp7512
a(V0
p7513
I0
tp7514
a(V10
p7515
I-15
tp7516
a(V11
p7517
I-12
tp7518
asS'code'
p7519
S'C0P-15R38531'
p7520
sS'condition'
p7521
V0
p7522
sS'points'
p7523
I-27
ssVmt_A8UTP6ZX9C1LP
p7524
(dp7525
S'ip'
p7526
(lp7527
(I0
I0
tp7528
a(V0
p7529
I10
tp7530
a(V0
p7531
I16
tp7532
a(V0
p7533
I-16
tp7534
a(V0
p7535
I15
tp7536
a(V0
p7537
I0
tp7538
a(V0
p7539
I16
tp7540
a(V0
p7541
I-7
tp7542
a(V0
p7543
I-18
tp7544
asS'code'
p7545
S'C0P41R89572'
p7546
sS'condition'
p7547
I0
sS'points'
p7548
I16
ssVmt_A2QBJTFPTUQ8U2
p7549
(dp7550
S'ip'
p7551
(lp7552
(I0
I0
tp7553
a(V10
p7554
I-20
tp7555
a(V0
p7556
I-20
tp7557
a(V21
p7558
I20
tp7559
a(V0
p7560
I20
tp7561
a(V0
p7562
I-20
tp7563
a(V0
p7564
I-20
tp7565
a(V0
p7566
I20
tp7567
a(V0
p7568
I20
tp7569
a(V0
p7570
I19
tp7571
a(V1
p7572
I20
tp7573
a(V0
p7574
I-20
tp7575
a(V0
p7576
I0
tp7577
a(V0
p7578
I-20
tp7579
a(V0
p7580
I20
tp7581
a(V0
p7582
I20
tp7583
a(V0
p7584
I-20
tp7585
a(V0
p7586
I-20
tp7587
a(V0
p7588
I-20
tp7589
a(V0
p7590
I20
tp7591
a(V0
p7592
I20
tp7593
a(V0
p7594
I-12
tp7595
asS'code'
p7596
S'C0P-40R99758'
p7597
sS'condition'
p7598
I0
sS'points'
p7599
I7
ssVmt_AP6CJAMKZ7GR4
p7600
(dp7601
S'ip'
p7602
(lp7603
(I0
I0
tp7604
a(V0
p7605
I-14
tp7606
a(V3
p7607
I20
tp7608
a(V0
p7609
I-12
tp7610
a(V0
p7611
I8
tp7612
a(V0
p7613
I-14
tp7614
a(V0
p7615
I12
tp7616
a(V0
p7617
I-9
tp7618
a(V0
p7619
I-12
tp7620
a(V0
p7621
I16
tp7622
asS'code'
p7623
S'C0P0R399'
p7624
sS'condition'
p7625
I0
sS'points'
p7626
I-5
ssVmt_A1CE2XPYCDRHVZ
p7627
(dp7628
S'ip'
p7629
(lp7630
(I0
I0
tp7631
a(V0
p7632
I12
tp7633
a(V0
p7634
I15
tp7635
a(V0
p7636
I-16
tp7637
a(V0
p7638
I11
tp7639
a(V0
p7640
I0
tp7641
a(V0
p7642
I15
tp7643
a(V0
p7644
I13
tp7645
asS'code'
p7646
S'C0P37R42304'
p7647
sS'condition'
p7648
I0
sS'points'
p7649
I50
ssVmt_A3L2UB07EZJAMD
p7650
(dp7651
S'ip'
p7652
(lp7653
(I0
I0
tp7654
a(V0
p7655
I-12
tp7656
a(V0
p7657
I16
tp7658
a(V0
p7659
I-15
tp7660
a(V0
p7661
I18
tp7662
a(V0
p7663
I14
tp7664
a(V0
p7665
I14
tp7666
asS'code'
p7667
S'C0P35R32408'
p7668
sS'condition'
p7669
I0
sS'points'
p7670
I35
ssVmt_A2EZNZ6X58RTNR
p7671
(dp7672
S'ip'
p7673
(lp7674
(I0
I0
tp7675
a(V0
p7676
I15
tp7677
a(V0
p7678
I20
tp7679
a(V0
p7680
I0
tp7681
a(V0
p7682
I20
tp7683
a(V0
p7684
I0
tp7685
a(V0
p7686
I0
tp7687
asS'code'
p7688
S'C0P55R89562'
p7689
sS'condition'
p7690
I0
sS'points'
p7691
I55
ssS'uI758YPWJ40'
p7692
(dp7693
S'last_claim'
p7694
I0
sS'ip'
p7695
(lp7696
(I0
I0
tp7697
asS'time'
p7698
(lp7699
I1526704306
asS'allslider'
p7700
(lp7701
sS'ans'
p7702
(lp7703
sS'condition'
p7704
I1
ssS'u31C0LBOI8T'
p7705
(dp7706
S'ip'
p7707
(lp7708
(I0
I0
tp7709
asS'points'
p7710
I0
sS'condition'
p7711
I1
ssS'uIEJLAF092W'
p7712
(dp7713
S'last_claim'
p7714
I0
sS'ip'
p7715
(lp7716
(I0
I0
tp7717
asS'ans'
p7718
(lp7719
sS'allslider'
p7720
(lp7721
sS'time'
p7722
(lp7723
I1527420583
asS'condition'
p7724
I1
ssS'uCIPL4JSWQ8'
p7725
(dp7726
S'ip'
p7727
(lp7728
(I0
I0
tp7729
asS'points'
p7730
I0
sS'condition'
p7731
I1
ssS'uL3B8S1RNGB'
p7732
(dp7733
S'ip'
p7734
(lp7735
(I0
I0
tp7736
asS'points'
p7737
I0
sS'condition'
p7738
I1
ssS'uUTOVM7S0EJ'
p7739
(dp7740
S'ip'
p7741
(lp7742
(I0
I0
tp7743
asS'points'
p7744
I0
sS'condition'
p7745
I1
ssVmt_A2YCMT5BPA0AG9
p7746
(dp7747
S'ip'
p7748
(lp7749
(I0
I0
tp7750
a(V24
p7751
I-12
tp7752
a(V14
p7753
I-15
tp7754
a(V9
p7755
I10
tp7756
a(V13
p7757
I-14
tp7758
a(V7
p7759
I0
tp7760
a(V18
p7761
I8
tp7762
a(V15
p7763
I10
tp7764
a(V7
p7765
I10
tp7766
a(V3
p7767
I-10
tp7768
a(V13
p7769
I10
tp7770
a(V1
p7771
I10
tp7772
a(V1
p7773
I-14
tp7774
a(V15
p7775
I-10
tp7776
asS'code'
p7777
S'C1P-23R98175'
p7778
sS'condition'
p7779
I1
sS'points'
p7780
I-17
ssVmt_A2A4DJKCY4T6N5
p7781
(dp7782
S'ip'
p7783
(lp7784
(I0
I0
tp7785
a(V4
p7786
I-12
tp7787
a(V10
p7788
I13
tp7789
a(V1
p7790
I15
tp7791
a(V3
p7792
I-17
tp7793
a(V2
p7794
I12
tp7795
a(V2
p7796
I18
tp7797
a(V0
p7798
I12
tp7799
asS'code'
p7800
S'C1P29R32731'
p7801
sS'condition'
p7802
I1
sS'points'
p7803
I41
ssS'u0Z8VQCDKNO'
p7804
(dp7805
S'last_claim'
p7806
I35
sS'ip'
p7807
(lp7808
(V0
p7809
I0
tp7810
asS'ans'
p7811
(lp7812
V1
p7813
asS'allslider'
p7814
(lp7815
V{"rep":["0","0","0.1","0.2","0.3","0.4","0.7","1"],"stn":["0.2","1.0","-0.4","-0.4","-1.0","-0.8","0.4","-0.8"]}
p7816
asS'time'
p7817
(lp7818
I1526678059
asS'condition'
p7819
I1
ssVmt_A2F2DDH12YU4AK
p7820
(dp7821
S'ip'
p7822
(lp7823
(I0
I0
tp7824
a(V0
p7825
I20
tp7826
a(V1
p7827
I20
tp7828
a(V0
p7829
I-20
tp7830
a(V0
p7831
I20
tp7832
a(V0
p7833
I0
tp7834
a(V0
p7835
I20
tp7836
a(V0
p7837
I-20
tp7838
asS'code'
p7839
S'C1P60R67440'
p7840
sS'condition'
p7841
I1
sS'points'
p7842
I40
ssS'uWJPGEWLV6X'
p7843
(dp7844
S'ip'
p7845
(lp7846
(I0
I0
tp7847
asS'points'
p7848
I0
sS'condition'
p7849
I1
ssVmt_A28LPPFS7FW2SD
p7850
(dp7851
S'ip'
p7852
(lp7853
(I0
I0
tp7854
a(V0
p7855
I-14
tp7856
a(V0
p7857
I10
tp7858
a(V0
p7859
I-19
tp7860
a(V0
p7861
I14
tp7862
a(V0
p7863
I14
tp7864
a(V0
p7865
I-12
tp7866
a(V0
p7867
I14
tp7868
a(V0
p7869
I-14
tp7870
a(V0
p7871
I15
tp7872
a(V0
p7873
I-13
tp7874
a(V0
p7875
I-14
tp7876
a(V0
p7877
I-5
tp7878
a(V0
p7879
I13
tp7880
a(V0
p7881
I-14
tp7882
a(V0
p7883
I7
tp7884
a(V0
p7885
I14
tp7886
a(V0
p7887
I16
tp7888
a(V0
p7889
I17
tp7890
a(V0
p7891
I-16
tp7892
a(V0
p7893
I8
tp7894
a(V0
p7895
I-5
tp7896
a(V0
p7897
I-10
tp7898
a(V0
p7899
I5
tp7900
a(V0
p7901
I-12
tp7902
a(V0
p7903
I-10
tp7904
a(V0
p7905
I-5
tp7906
a(V0
p7907
I12
tp7908
a(V0
p7909
I18
tp7910
a(V0
p7911
I6
tp7912
a(V0
p7913
I16
tp7914
a(V0
p7915
I-7
tp7916
a(V0
p7917
I-3
tp7918
a(V0
p7919
I-11
tp7920
a(V0
p7921
I-10
tp7922
a(V0
p7923
I15
tp7924
a(V0
p7925
I2
tp7926
asS'code'
p7927
S'C0P7R52200'
p7928
sS'condition'
p7929
I0
sS'points'
p7930
I22
ssVmt_AJRY9ALX8069Y
p7931
(dp7932
S'ip'
p7933
(lp7934
(I0
I0
tp7935
a(V9
p7936
I-12
tp7937
a(V4
p7938
I18
tp7939
a(V6
p7940
I17
tp7941
a(V10
p7942
I16
tp7943
a(V6
p7944
I-12
tp7945
a(V5
p7946
I16
tp7947
asS'code'
p7948
S'C1P43R94539'
p7949
sS'condition'
p7950
I1
sS'points'
p7951
I43
ssS'u21LZE69PC2'
p7952
(dp7953
S'ip'
p7954
(lp7955
(I0
I0
tp7956
asS'points'
p7957
I0
sS'condition'
p7958
I1
ssVmt_AN6L87Z4LP6R5
p7959
(dp7960
S'ip'
p7961
(lp7962
(I0
I0
tp7963
a(V19
p7964
I18
tp7965
a(V27
p7966
I20
tp7967
a(V7
p7968
I12
tp7969
a(V7
p7970
I20
tp7971
a(V7
p7972
I20
tp7973
a(V8
p7974
I20
tp7975
asS'code'
p7976
S'C1P110R65987'
p7977
sS'condition'
p7978
I1
sS'points'
p7979
I110
ssVmt_A2MKUZ0K3S7NQU
p7980
(dp7981
S'ip'
p7982
(lp7983
(I0
I0
tp7984
a(V26
p7985
I-16
tp7986
a(V0
p7987
I2
tp7988
a(V0
p7989
I-4
tp7990
a(V2
p7991
I-20
tp7992
a(V4
p7993
I14
tp7994
a(V11
p7995
I-15
tp7996
asS'code'
p7997
S'C1P-39R88027'
p7998
sS'condition'
p7999
I1
sS'points'
p8000
I-39
ssS'uKL14N9Z71T'
p8001
(dp8002
S'ip'
p8003
(lp8004
(I0
I0
tp8005
asS'points'
p8006
I0
sS'condition'
p8007
I1
ssVmt_A3U21PUMQ6NGT2
p8008
(dp8009
S'ip'
p8010
(lp8011
(I0
I0
tp8012
a(V0
p8013
I15
tp8014
a(V0
p8015
I18
tp8016
a(V0
p8017
I-11
tp8018
a(V0
p8019
I17
tp8020
asS'points'
p8021
I39
sS'condition'
p8022
I0
ssS'uZQ6YHYTPF1'
p8023
(dp8024
S'ip'
p8025
(lp8026
(I0
I0
tp8027
asS'points'
p8028
I0
sS'condition'
p8029
I1
ssVmt_A3EO2DPEN9JYC8
p8030
(dp8031
S'ip'
p8032
(lp8033
(I0
I0
tp8034
a(V0
p8035
I-12
tp8036
a(V0
p8037
I-9
tp8038
a(V0
p8039
I-9
tp8040
a(V0
p8041
I-9
tp8042
a(V0
p8043
I-10
tp8044
a(V0
p8045
I-9
tp8046
a(V0
p8047
I-11
tp8048
a(V0
p8049
I-10
tp8050
a(V0
p8051
I9
tp8052
a(V0
p8053
I10
tp8054
a(V0
p8055
I10
tp8056
a(V0
p8057
I-12
tp8058
a(V0
p8059
I-12
tp8060
a(V0
p8061
I-10
tp8062
a(V0
p8063
I-10
tp8064
a(V0
p8065
I-10
tp8066
a(V0
p8067
I10
tp8068
a(V0
p8069
I9
tp8070
a(V0
p8071
I-12
tp8072
a(V0
p8073
I-12
tp8074
a(V0
p8075
I12
tp8076
a(V0
p8077
I13
tp8078
a(V0
p8079
I-12
tp8080
a(V0
p8081
I12
tp8082
asS'code'
p8083
S'C0P-58R79303'
p8084
sS'condition'
p8085
I0
sS'points'
p8086
I-84
ssS'uA2YA8524V2'
p8087
(dp8088
S'ip'
p8089
(lp8090
(I0
I0
tp8091
asS'points'
p8092
I0
sS'condition'
p8093
I1
ssS'uJV97JJPWXY'
p8094
(dp8095
S'ip'
p8096
(lp8097
(I0
I0
tp8098
asS'points'
p8099
I0
sS'condition'
p8100
I1
ssVmt_A2JP9IKRHNLRPI
p8101
(dp8102
S'ip'
p8103
(lp8104
(I0
I0
tp8105
a(V0
p8106
I20
tp8107
a(V0
p8108
I20
tp8109
a(V0
p8110
I-20
tp8111
a(V1
p8112
I20
tp8113
a(V0
p8114
I0
tp8115
a(V0
p8116
I20
tp8117
asS'code'
p8118
S'C1P60R12801'
p8119
sS'condition'
p8120
I1
sS'points'
p8121
I60
ssVmt_A1EITLFAMKA61U
p8122
(dp8123
S'ip'
p8124
(lp8125
(I0
I0
tp8126
a(V3
p8127
I17
tp8128
a(V3
p8129
I16
tp8130
a(V1
p8131
I-20
tp8132
a(V0
p8133
I19
tp8134
a(V0
p8135
I0
tp8136
a(V0
p8137
I16
tp8138
a(V0
p8139
I-20
tp8140
asS'code'
p8141
S'C1P48R66274'
p8142
sS'condition'
p8143
I1
sS'points'
p8144
I28
ssVmt_A12AVKFXNKBMSX
p8145
(dp8146
S'ip'
p8147
(lp8148
(I0
I0
tp8149
a(V0
p8150
I20
tp8151
a(V0
p8152
I20
tp8153
a(V0
p8154
I-20
tp8155
a(V0
p8156
I20
tp8157
a(V0
p8158
I20
tp8159
a(V0
p8160
I20
tp8161
a(V0
p8162
I12
tp8163
asS'code'
p8164
S'C0P80R17362'
p8165
sS'condition'
p8166
I0
sS'points'
p8167
I92
ssVmt_A3AUYTM38ALODI
p8168
(dp8169
S'ip'
p8170
(lp8171
(I0
I0
tp8172
a(V0
p8173
I20
tp8174
asS'points'
p8175
I20
sS'condition'
p8176
I1
ssS'uNVA3CXYD19'
p8177
(dp8178
S'ip'
p8179
(lp8180
(I0
I0
tp8181
asS'points'
p8182
I0
sS'condition'
p8183
I1
ssVmt_AEHONA1BIY9JB
p8184
(dp8185
S'ip'
p8186
(lp8187
(I0
I0
tp8188
a(V4
p8189
I-11
tp8190
asS'points'
p8191
I-11
sS'condition'
p8192
I0
ssS'u5PIDTSCHQY'
p8193
(dp8194
S'ip'
p8195
(lp8196
(I0
I0
tp8197
asS'points'
p8198
I0
sS'condition'
p8199
I1
ssVmt_A333BXH5ATXBHC
p8200
(dp8201
S'ip'
p8202
(lp8203
(I0
I0
tp8204
a(V2
p8205
I-1
tp8206
a(V0
p8207
I20
tp8208
a(V2
p8209
I1
tp8210
a(V0
p8211
I11
tp8212
a(V0
p8213
I8
tp8214
a(V0
p8215
I-1
tp8216
asS'code'
p8217
S'C1P38R24393'
p8218
sS'condition'
p8219
I1
sS'points'
p8220
I38
ssVmt_A11UBOE8N877JJ
p8221
(dp8222
S'ip'
p8223
(lp8224
(I0
I0
tp8225
a(V0
p8226
I14
tp8227
a(V0
p8228
I-15
tp8229
a(V0
p8230
I-6
tp8231
a(V0
p8232
I17
tp8233
a(V0
p8234
I0
tp8235
a(V0
p8236
I-10
tp8237
a(V0
p8238
I11
tp8239
a(V0
p8240
I-14
tp8241
a(V0
p8242
I-19
tp8243
a(V0
p8244
I-18
tp8245
a(V0
p8246
I14
tp8247
a(V0
p8248
I18
tp8249
a(V0
p8250
I-20
tp8251
a(V0
p8252
I-12
tp8253
a(V0
p8254
I16
tp8255
a(V0
p8256
I14
tp8257
a(V0
p8258
I14
tp8259
a(V0
p8260
I-14
tp8261
asS'code'
p8262
S'C0P0R27605'
p8263
sS'condition'
p8264
I0
sS'points'
p8265
I-10
ssVmt_A1RATFICCKLCQ
p8266
(dp8267
S'ip'
p8268
(lp8269
(I0
I0
tp8270
a(V3
p8271
I14
tp8272
a(V2
p8273
I17
tp8274
a(V3
p8275
I-20
tp8276
a(V1
p8277
I15
tp8278
asS'points'
p8279
I26
sS'condition'
p8280
I1
ssS'uL4S9TSDIMD'
p8281
(dp8282
S'ip'
p8283
(lp8284
(I0
I0
tp8285
asS'points'
p8286
I0
sS'condition'
p8287
I1
ssVmt_A3FUTSFH39MJA5
p8288
(dp8289
S'ip'
p8290
(lp8291
(I0
I0
tp8292
a(V1
p8293
I13
tp8294
a(V0
p8295
I-20
tp8296
a(V0
p8297
I-14
tp8298
a(V0
p8299
I-13
tp8300
a(V0
p8301
I14
tp8302
a(V0
p8303
I20
tp8304
a(V0
p8305
I-15
tp8306
a(V0
p8307
I-20
tp8308
asS'code'
p8309
S'C1P0R45984'
p8310
sS'condition'
p8311
I1
sS'points'
p8312
I-35
ssVmt_A3HT4AO5DN5J2B
p8313
(dp8314
S'ip'
p8315
(lp8316
(I0
I0
tp8317
a(V0
p8318
I15
tp8319
a(V0
p8320
I-18
tp8321
a(V0
p8322
I-16
tp8323
a(V0
p8324
I20
tp8325
a(V0
p8326
I15
tp8327
a(V0
p8328
I15
tp8329
asS'code'
p8330
S'C0P31R61527'
p8331
sS'condition'
p8332
I0
sS'points'
p8333
I31
ssVmt_A1SJRFJWFXSDH4
p8334
(dp8335
S'ip'
p8336
(lp8337
(I0
I0
tp8338
a(V44
p8339
I-18
tp8340
asS'points'
p8341
I-18
sS'condition'
p8342
I0
ssVmt_ADY4WHEHFRR2Z
p8343
(dp8344
S'ip'
p8345
(lp8346
(I0
I0
tp8347
a(V32
p8348
I-18
tp8349
a(V25
p8350
I10
tp8351
a(V14
p8352
I-18
tp8353
a(V16
p8354
I19
tp8355
a(V16
p8356
I-17
tp8357
a(V21
p8358
I16
tp8359
a(V1
p8360
I-5
tp8361
a(V4
p8362
I-18
tp8363
a(V4
p8364
I-16
tp8365
a(V2
p8366
I18
tp8367
a(V7
p8368
I16
tp8369
a(V2
p8370
I16
tp8371
a(V4
p8372
I-16
tp8373
a(V9
p8374
I-15
tp8375
a(V5
p8376
I19
tp8377
a(V2
p8378
I17
tp8379
a(V9
p8380
I15
tp8381
a(V4
p8382
I-17
tp8383
a(V3
p8384
I-18
tp8385
a(V6
p8386
I18
tp8387
a(V8
p8388
I-19
tp8389
a(V3
p8390
I-17
tp8391
a(V6
p8392
I-19
tp8393
a(V5
p8394
I-16
tp8395
a(V2
p8396
I17
tp8397
a(V1
p8398
I15
tp8399
a(V3
p8400
I-16
tp8401
a(V2
p8402
I7
tp8403
a(V9
p8404
I16
tp8405
a(V5
p8406
I-17
tp8407
a(V2
p8408
I-17
tp8409
a(V4
p8410
I-10
tp8411
a(V2
p8412
I10
tp8413
a(V2
p8414
I12
tp8415
a(V6
p8416
I-17
tp8417
asS'code'
p8418
S'C0P-8R12767'
p8419
sS'condition'
p8420
I0
sS'points'
p8421
I-65
ssVmt_TEST2
p8422
(dp8423
S'ip'
p8424
(lp8425
(I0
I0
tp8426
a(I0
I0
tp8427
a(V0
p8428
I10
tp8429
asS'points'
p8430
I10
sS'condition'
p8431
I0
ssS'uQ4P5P6317X'
p8432
(dp8433
S'ip'
p8434
(lp8435
(I0
I0
tp8436
asS'points'
p8437
I0
sS'condition'
p8438
I1
ssVmt_A876Q32QMWTUF
p8439
(dp8440
S'ip'
p8441
(lp8442
(I0
I0
tp8443
a(V21
p8444
I-11
tp8445
a(V13
p8446
I-18
tp8447
a(V11
p8448
I10
tp8449
a(V5
p8450
I15
tp8451
a(V7
p8452
I-10
tp8453
a(V13
p8454
I-14
tp8455
a(V4
p8456
I-18
tp8457
a(V7
p8458
I-14
tp8459
asS'code'
p8460
S'C0P-28R24951'
p8461
sS'condition'
p8462
I0
sS'points'
p8463
I-60
ssS'u3KFNWAWQWU'
p8464
(dp8465
S'ip'
p8466
(lp8467
(I0
I0
tp8468
asS'points'
p8469
I0
sS'condition'
p8470
I1
ssVmt_AKNYT1NTK2UFK
p8471
(dp8472
S'ip'
p8473
(lp8474
(I0
I0
tp8475
a(V7
p8476
I-16
tp8477
a(V2
p8478
I14
tp8479
a(V2
p8480
I-13
tp8481
a(V2
p8482
I14
tp8483
a(V0
p8484
I0
tp8485
a(V1
p8486
I15
tp8487
asS'code'
p8488
S'C1P14R38668'
p8489
sS'condition'
p8490
I1
sS'points'
p8491
I14
ssVmt_A6EJ7EU0KMGPL
p8492
(dp8493
S'ip'
p8494
(lp8495
(I0
I0
tp8496
a(V0
p8497
I-15
tp8498
a(V0
p8499
I13
tp8500
a(V0
p8501
I-12
tp8502
a(V0
p8503
I18
tp8504
a(V0
p8505
I16
tp8506
a(V0
p8507
I20
tp8508
asS'code'
p8509
S'C0P40R44272'
p8510
sS'condition'
p8511
I0
sS'points'
p8512
I40
ssVmt_A2LBOVE1R9TCNL
p8513
(dp8514
S'code'
p8515
S'C0A3434445444R1236'
p8516
sS'last_claim'
p8517
I10
sS'bonus'
p8518
(lp8519
I4
aI2
aI4
aI12
aI12
aI12
aI0
aI2
aI2
aI12
asS'ip'
p8520
(lp8521
(I0
I0
tp8522
a(V13
p8523
I0
tp8524
a(V11
p8525
I0
tp8526
a(V0
p8527
I0
tp8528
a(V0
p8529
I0
tp8530
a(V0
p8531
I0
tp8532
a(V0
p8533
I0
tp8534
a(V0
p8535
I0
tp8536
a(V0
p8537
I0
tp8538
a(V0
p8539
I0
tp8540
a(V0
p8541
I0
tp8542
asS'ans'
p8543
(lp8544
V3
p8545
aV4
p8546
aV3
p8547
aV4
p8548
aV4
p8549
aV4
p8550
aV5
p8551
aV4
p8552
aV4
p8553
aV4
p8554
asS'allslider'
p8555
(lp8556
sS'time'
p8557
(lp8558
I1526660942
aI1526661029
aI1526661060
aI1526661070
aI1526661076
aI1526661083
aI1526661089
aI1526661106
aI1526661112
aI1526661117
aI1526661126
asS'total_bonus'
p8559
I62
sS'condition'
p8560
I0
ssVmt_A110KENBXU7SUJ
p8561
(dp8562
S'ip'
p8563
(lp8564
(I0
I0
tp8565
a(V1
p8566
I14
tp8567
a(V0
p8568
I12
tp8569
a(V0
p8570
I-12
tp8571
a(V0
p8572
I14
tp8573
a(V0
p8574
I0
tp8575
a(V0
p8576
I18
tp8577
asS'code'
p8578
S'C0P46R50719'
p8579
sS'condition'
p8580
V0
p8581
sS'points'
p8582
I46
ssVmt_AFM6MQ0XZXKQD
p8583
(dp8584
S'ip'
p8585
(lp8586
(I0
I0
tp8587
a(V0
p8588
I19
tp8589
a(V0
p8590
I20
tp8591
a(V0
p8592
I-14
tp8593
a(V0
p8594
I19
tp8595
a(V0
p8596
I0
tp8597
a(V0
p8598
I13
tp8599
asS'code'
p8600
S'C0P57R66596'
p8601
sS'condition'
p8602
I0
sS'points'
p8603
I57
ssVmt_A2R0YYUAWNT7UD
p8604
(dp8605
S'ip'
p8606
(lp8607
(I0
I0
tp8608
a(V0
p8609
I15
tp8610
a(V0
p8611
I17
tp8612
a(V0
p8613
I-13
tp8614
a(V0
p8615
I18
tp8616
a(V0
p8617
I0
tp8618
a(V0
p8619
I19
tp8620
asS'code'
p8621
S'C0P56R46917'
p8622
sS'condition'
p8623
I0
sS'points'
p8624
I56
ssVmt_A16JMJHOUC2MGE
p8625
(dp8626
S'ip'
p8627
(lp8628
(I0
I0
tp8629
a(V0
p8630
I20
tp8631
a(V0
p8632
I20
tp8633
a(V0
p8634
I-20
tp8635
a(V0
p8636
I20
tp8637
a(V0
p8638
I0
tp8639
a(V0
p8640
I20
tp8641
asS'code'
p8642
S'C1P60R73813'
p8643
sS'condition'
p8644
I1
sS'points'
p8645
I60
ssVmt_A17FGZ1I5P9RZA
p8646
(dp8647
S'ip'
p8648
(lp8649
(I0
I0
tp8650
a(V11
p8651
I19
tp8652
a(V21
p8653
I19
tp8654
a(V5
p8655
I-15
tp8656
a(V3
p8657
I19
tp8658
a(V2
p8659
I0
tp8660
a(V3
p8661
I19
tp8662
asS'code'
p8663
S'C1P61R49100'
p8664
sS'condition'
p8665
I1
sS'points'
p8666
I61
ssVmt_A2DVRTL0JB0GT0
p8667
(dp8668
S'ip'
p8669
(lp8670
(I0
I0
tp8671
a(V5
p8672
I-16
tp8673
asS'points'
p8674
I-16
sS'condition'
p8675
I0
ssS'uOCJZMZVKLL'
p8676
(dp8677
S'last_claim'
p8678
I0
sS'ip'
p8679
(lp8680
(I0
I0
tp8681
asS'ans'
p8682
(lp8683
sS'allslider'
p8684
(lp8685
sS'time'
p8686
(lp8687
I1526695568
asS'condition'
p8688
I1
ssS'u3NURGP1OTU'
p8689
(dp8690
S'ip'
p8691
(lp8692
(I0
I0
tp8693
asS'points'
p8694
I0
sS'condition'
p8695
I1
ssVmt_A1M0JDU08KRH7X
p8696
(dp8697
S'ip'
p8698
(lp8699
(I0
I0
tp8700
a(V0
p8701
I7
tp8702
a(V0
p8703
I5
tp8704
a(V0
p8705
I-14
tp8706
a(V0
p8707
I12
tp8708
a(V0
p8709
I17
tp8710
a(V0
p8711
I15
tp8712
a(V0
p8713
I-17
tp8714
a(V0
p8715
I-20
tp8716
a(V0
p8717
I-20
tp8718
a(V0
p8719
I-20
tp8720
a(V0
p8721
I0
tp8722
a(V0
p8723
I20
tp8724
a(V0
p8725
I11
tp8726
a(V0
p8727
I-10
tp8728
a(V0
p8729
I-20
tp8730
a(V0
p8731
I-12
tp8732
a(V0
p8733
I20
tp8734
a(V0
p8735
I12
tp8736
a(V0
p8737
I20
tp8738
asS'code'
p8739
S'C0P42R33560'
p8740
sS'condition'
p8741
I0
sS'points'
p8742
I6
ssS'uM3CO3HIRJX'
p8743
(dp8744
S'ip'
p8745
(lp8746
(I0
I0
tp8747
asS'points'
p8748
I0
sS'condition'
p8749
I1
ssVmt_A39XRNWGLXK7QC
p8750
(dp8751
S'ip'
p8752
(lp8753
(I0
I0
tp8754
a(V1
p8755
I-20
tp8756
a(V0
p8757
I-10
tp8758
a(V0
p8759
I10
tp8760
a(V0
p8761
I-12
tp8762
a(V0
p8763
I20
tp8764
a(V0
p8765
I20
tp8766
asS'code'
p8767
S'C1P8R65651'
p8768
sS'condition'
p8769
I1
sS'points'
p8770
I8
ssVmt_A33SKY7HS5PDT6
p8771
(dp8772
S'ip'
p8773
(lp8774
(I0
I0
tp8775
a(V1
p8776
I-12
tp8777
a(V4
p8778
I14
tp8779
a(V0
p8780
I-14
tp8781
a(V0
p8782
I20
tp8783
a(V0
p8784
I-14
tp8785
a(V0
p8786
I-10
tp8787
asS'code'
p8788
S'C0P-16R26826'
p8789
sS'condition'
p8790
V0
p8791
sS'points'
p8792
I-16
ssS'uGMO14JH69M'
p8793
(dp8794
S'ip'
p8795
(lp8796
(I0
I0
tp8797
asS'points'
p8798
I0
sS'condition'
p8799
I1
ssVmt_A3DFPK9QX1I23Z
p8800
(dp8801
S'ip'
p8802
(lp8803
(I0
I0
tp8804
a(V23
p8805
I-19
tp8806
a(V6
p8807
I-14
tp8808
a(V14
p8809
I16
tp8810
a(V12
p8811
I-20
tp8812
a(V3
p8813
I12
tp8814
a(V0
p8815
I16
tp8816
a(V0
p8817
I-19
tp8818
a(V0
p8819
I-12
tp8820
a(V0
p8821
I13
tp8822
a(V0
p8823
I20
tp8824
a(V2
p8825
I-12
tp8826
a(V0
p8827
I13
tp8828
a(V0
p8829
I-16
tp8830
a(V0
p8831
I12
tp8832
a(V0
p8833
I-14
tp8834
a(V0
p8835
I-16
tp8836
a(V0
p8837
I14
tp8838
a(V0
p8839
I-11
tp8840
a(V0
p8841
I-12
tp8842
a(V0
p8843
I-12
tp8844
a(V0
p8845
I-13
tp8846
a(V0
p8847
I-16
tp8848
a(V0
p8849
I10
tp8850
a(V0
p8851
I10
tp8852
a(V0
p8853
I-12
tp8854
a(V0
p8855
I19
tp8856
a(V0
p8857
I20
tp8858
a(V0
p8859
I7
tp8860
a(V0
p8861
I-15
tp8862
a(V0
p8863
I-14
tp8864
a(V0
p8865
I-10
tp8866
a(V0
p8867
I-20
tp8868
a(V0
p8869
I-15
tp8870
a(V0
p8871
I20
tp8872
a(V0
p8873
I15
tp8874
asS'code'
p8875
S'C0P-9R9256'
p8876
sS'condition'
p8877
I0
sS'points'
p8878
I-75
ssS'uFS89O12398'
p8879
(dp8880
S'last_claim'
p8881
I14
sS'ip'
p8882
(lp8883
(V0
p8884
I0
tp8885
asS'time'
p8886
(lp8887
I1526677642
asS'allslider'
p8888
(lp8889
V{"rep":["0.2","0.1","0.7","0.0","0","0","0","0","0","0.0","0.3","0.2","0.1","0.5","0.4","0.4","1","0.4","0","0.7","0.1","0.3","0.4","0.4","0","0.0","0","0.3","0","0.0","0.4"],"stn":["0.6","-0.6","1.0","-0.8","0.6","0.8","-0.2","1.0","0.6","0.4","1.0","0.6","0.8","0.4","0.2","-1.0","-1.0","0.8","0.4","-0.4","0.8","0.4","0.8","-0.8","0.2","1.0","-0.6","-1.0","1.0","0.8","0.6"]}
p8890
asS'ans'
p8891
(lp8892
V2
p8893
asS'condition'
p8894
I1
ssS'u2UMMSWF969'
p8895
(dp8896
S'ip'
p8897
(lp8898
(I0
I0
tp8899
asS'points'
p8900
I0
sS'condition'
p8901
I1
ssS'uKATKH5PUDU'
p8902
(dp8903
S'ip'
p8904
(lp8905
(I0
I0
tp8906
asS'points'
p8907
I0
sS'condition'
p8908
I1
ssVmt_A2V3ECGQQYNO85
p8909
(dp8910
S'ip'
p8911
(lp8912
(I0
I0
tp8913
a(V13
p8914
I20
tp8915
a(V15
p8916
I20
tp8917
a(V8
p8918
I-20
tp8919
a(V7
p8920
I20
tp8921
a(V7
p8922
I10
tp8923
a(V6
p8924
I20
tp8925
a(V5
p8926
I10
tp8927
a(V7
p8928
I-20
tp8929
a(V2
p8930
I20
tp8931
a(V13
p8932
I20
tp8933
a(V0
p8934
I5
tp8935
a(V1
p8936
I-5
tp8937
a(V12
p8938
I20
tp8939
a(V43
p8940
I20
tp8941
a(V4
p8942
I10
tp8943
a(V3
p8944
I-2
tp8945
a(V3
p8946
I20
tp8947
a(V10
p8948
I5
tp8949
a(V1
p8950
I5
tp8951
a(V3
p8952
I10
tp8953
a(V4
p8954
I20
tp8955
a(V6
p8956
I10
tp8957
a(V1
p8958
I10
tp8959
a(V2
p8960
I10
tp8961
a(V3
p8962
I10
tp8963
a(V3
p8964
I10
tp8965
a(V11
p8966
I5
tp8967
a(V0
p8968
I-10
tp8969
a(V0
p8970
I-3
tp8971
a(V2
p8972
I2
tp8973
a(V0
p8974
I10
tp8975
a(V5
p8976
I10
tp8977
asS'code'
p8978
S'C1P70R42291'
p8979
sS'condition'
p8980
I1
sS'points'
p8981
I272
ssVmt_A3VRDQJNM1IC0E
p8982
(dp8983
S'ip'
p8984
(lp8985
(I0
I0
tp8986
a(V7
p8987
I16
tp8988
a(V3
p8989
I15
tp8990
a(V0
p8991
I-20
tp8992
a(V1
p8993
I20
tp8994
a(V0
p8995
I0
tp8996
a(V1
p8997
I19
tp8998
asS'code'
p8999
S'C1P50R78187'
p9000
sS'condition'
p9001
I1
sS'points'
p9002
I50
ssS'uQG20FHG1QD'
p9003
(dp9004
S'ip'
p9005
(lp9006
(I0
I0
tp9007
asS'points'
p9008
I0
sS'condition'
p9009
I1
ssVmt_A39GADIK8RLMVC
p9010
(dp9011
S'ip'
p9012
(lp9013
(I0
I0
tp9014
a(V24
p9015
I20
tp9016
a(V23
p9017
I20
tp9018
a(V6
p9019
I20
tp9020
a(V8
p9021
I20
tp9022
a(V8
p9023
I20
tp9024
a(V9
p9025
I20
tp9026
a(V8
p9027
I-20
tp9028
asS'code'
p9029
S'C1P120R68196'
p9030
sS'condition'
p9031
I1
sS'points'
p9032
I100
ssVmt_A136GE908Q9X5O
p9033
(dp9034
S'ip'
p9035
(lp9036
(I0
I0
tp9037
a(V0
p9038
I15
tp9039
a(V1
p9040
I15
tp9041
a(V0
p9042
I-20
tp9043
a(V0
p9044
I10
tp9045
a(V0
p9046
I20
tp9047
a(V0
p9048
I20
tp9049
a(V0
p9050
I-20
tp9051
asS'code'
p9052
S'C1P60R2357'
p9053
sS'condition'
p9054
V1
p9055
sS'points'
p9056
I40
ssVmt_A2871R3LEPWMMK
p9057
(dp9058
S'code'
p9059
S'C1A2254454425R7772'
p9060
sS'last_claim'
p9061
I10
sS'bonus'
p9062
(lp9063
I12
aI12
aI0
aI12
aI12
aI15
aI2
aI2
aI12
aI15
asS'ip'
p9064
(lp9065
(I0
I0
tp9066
a(V0
p9067
I0
tp9068
a(V0
p9069
I0
tp9070
a(V0
p9071
I0
tp9072
a(V0
p9073
I0
tp9074
a(V0
p9075
I0
tp9076
a(V0
p9077
I0
tp9078
a(V0
p9079
I0
tp9080
a(V0
p9081
I0
tp9082
a(V0
p9083
I0
tp9084
a(V0
p9085
I0
tp9086
asS'time'
p9087
(lp9088
I1526678059
aI1526678100
aI1526678145
aI1526678158
aI1526678192
aI1526678216
aI1526678322
aI1526678391
aI1526678406
aI1526678683
aI1526678698
asS'allslider'
p9089
(lp9090
V{"rep":["0.2","0.4","0.4","0","0.2","0","0","0","0.6","0.3"],"stn":["-0.6","-0.6","-0.6","0.4","-0.6","0.4","0.4","0","-1","-0.8"]}
p9091
aV{"rep":["0","0","0","0","0","0","0","0","0","0"],"stn":["-1","0.7","-0.3","-1","-0.4","-1","-0.8","-0.4","0.6","-1"]}
p9092
aV{"rep":["0","0.1","0","0","0.2","0","0.2"],"stn":["1","0.8","0.6","1","1","1","0.8"]}
p9093
aV{"rep":["0","0","0","0.6","0.1","0.4","0","0"],"stn":["1","0.6","0.4","0.8","0.2","0.8","1","1"]}
p9094
aV{"rep":["0.1","0","0","0.1","0.1","0.3","0.1","0.7"],"stn":["1","0.8","0.8","1","0.8","0.8","0.6","1"]}
p9095
aV{"rep":["0","0","0","0.2","0","0.6","0.5","0","0.8","0"],"stn":["1","1","0.6","1","1","1","1","1","0.8","1"]}
p9096
aV{"rep":["0","0.1","0.3","0.1","0.4","0.4","0.4","0","0.3"],"stn":["1","0.8","0.5","0.4","0.8","-0.6","0.8","0.8","1"]}
p9097
aV{"rep":["1","0","0.1","0.7","0.2","0"],"stn":["0.4","0.8","0.8","0.6","0.4","1"]}
p9098
aV{"rep":["0","0"],"stn":["0.7","1"]}
p9099
aV{"rep":["0.1","0","0.2","0.1","0.3","0.3","0.7","0.5","1","0.7","0","0.2","0","1","1","0.3"],"stn":["0.6","0.8","0.6","1","0.8","0.5","0.5","0","1","1","1","0.5","0.8","0.8","0.3","0.8"]}
p9100
asS'ans'
p9101
(lp9102
V2
p9103
aV2
p9104
aV5
p9105
aV4
p9106
aV4
p9107
aV5
p9108
aV4
p9109
aV4
p9110
aV2
p9111
aV5
p9112
asS'total_bonus'
p9113
I94
sS'condition'
p9114
I1
ssVmt_A30KYQGABO7JER
p9115
(dp9116
S'ip'
p9117
(lp9118
(I0
I0
tp9119
a(V1
p9120
I19
tp9121
a(V0
p9122
I18
tp9123
a(V0
p9124
I-20
tp9125
a(V0
p9126
I20
tp9127
a(V0
p9128
I0
tp9129
a(V0
p9130
I20
tp9131
a(V0
p9132
I12
tp9133
a(V0
p9134
I-19
tp9135
asS'code'
p9136
S'C0P57R86123'
p9137
sS'condition'
p9138
V0
p9139
sS'points'
p9140
I50
ssVmt_A360G5G0DVWU7X
p9141
(dp9142
S'code'
p9143
S'C0A1114112414R7521'
p9144
sS'last_claim'
p9145
I10
sS'bonus'
p9146
(lp9147
I15
aI15
aI15
aI12
aI0
aI0
aI12
aI2
aI15
aI12
asS'ip'
p9148
(lp9149
(I0
I0
tp9150
a(V15
p9151
I0
tp9152
a(V21
p9153
I0
tp9154
a(V12
p9155
I0
tp9156
a(V14
p9157
I0
tp9158
a(V16
p9159
I0
tp9160
a(V18
p9161
I0
tp9162
a(V16
p9163
I0
tp9164
a(V13
p9165
I0
tp9166
a(V4
p9167
I0
tp9168
a(V23
p9169
I0
tp9170
asS'ans'
p9171
(lp9172
V1
p9173
aV1
p9174
aV1
p9175
aV4
p9176
aV1
p9177
aV1
p9178
aV2
p9179
aV4
p9180
aV1
p9181
aV4
p9182
asS'allslider'
p9183
(lp9184
V{"rep":["0.1","-0.6","0.4","-1","0.2","-1","0.2","-0.4","0.8","0.7"],"stn":["-0.5","-0.8","0.2","-1","0.1","-1","0.2","-0.5","0.7","0.5"]}
p9185
aV{"rep":["-0.2","0.2","0.6","0.4","0.4","0.1","-0.8","0.5","-0.6","0.6"],"stn":["0.1","0.5","0.6","0.8","0.6","0.7","-0.7","0.8","-0.7","0.7"]}
p9186
aV{"rep":["-0.5","-0.4","0.1","0.4","-0.2","-0.4","-0.3"],"stn":["0","-0.2","0.6","0.5","-0.4","-0.3","0"]}
p9187
aV{"rep":["0.7","0.3","0.6","0.3","0.1","0.3","0.3","0.2"],"stn":["0","0.8","0.6","0.3","0.6","0.6","0.7","0.5"]}
p9188
aV{"rep":["-0.6","-0.8","-0.7","-0.6","-0.6","-0.2","-0.8","-0.7"],"stn":["-0.7","-0.9","-0.7","-0.8","-0.9","-1","-1","-1"]}
p9189
aV{"rep":["0.4","0.6","0.1","0.6","0.2","0.6","0.5","0.6","0.3","0.5"],"stn":["0.5","0.8","0.6","0.8","0.6","0.4","0.5","0.9","0.7","0.8"]}
p9190
aV{"rep":["0.4","-0.3","0.7","-0.3","0.6","0.7","0.8","-0.6","-0.5"],"stn":["0.7","0.9","0.9","0.5","0.9","0.6","0.5","0.5","0.5"]}
p9191
aV{"rep":["0.5","0.6","0.1","0.5","0.6","0.4"],"stn":["0.6","0.3","0.2","0.3","0.7","0.8"]}
p9192
aV{"rep":["-0.6","-0.5"],"stn":["0.5","0.3"]}
p9193
aV{"rep":["0.7","-0.4","0.6","-0.4","0","0.9","1","0","0.1","0.7","0","0.8","0.8","0.4","0.2","0.6"],"stn":["0.7","0.2","0.9","0.7","0.6","0.1","0.9","0.3","0.9","0.1","0.8","1","0.4","0.4","0.8","0.4"]}
p9194
asS'time'
p9195
(lp9196
I1526830947
aI1526831072
aI1526831142
aI1526831187
aI1526831223
aI1526831254
aI1526831283
aI1526831307
aI1526831331
aI1526831342
aI1526831375
asS'total_bonus'
p9197
I98
sS'condition'
p9198
I0
ssS'uOS24SV14FG'
p9199
(dp9200
S'last_claim'
p9201
I22
sS'ip'
p9202
(lp9203
(V0
p9204
I0
tp9205
asS'time'
p9206
(lp9207
I1526677743
asS'allslider'
p9208
(lp9209
V{"rep":["0","0","0.0","0"],"stn":["-1.0","-1.0","0.8","0.8"]}
p9210
asS'ans'
p9211
(lp9212
V2
p9213
asS'condition'
p9214
I1
ssS'u0LPTNC5JQO'
p9215
(dp9216
S'ip'
p9217
(lp9218
(I0
I0
tp9219
asS'points'
p9220
I0
sS'condition'
p9221
I1
ssVmt_A2WNVSJ1Y06SS1
p9222
(dp9223
S'ip'
p9224
(lp9225
(I0
I0
tp9226
a(V9
p9227
I14
tp9228
a(V12
p9229
I16
tp9230
a(V7
p9231
I10
tp9232
a(V6
p9233
I20
tp9234
a(V0
p9235
I0
tp9236
a(V4
p9237
I20
tp9238
a(V6
p9239
I20
tp9240
asS'code'
p9241
S'C1P80R66959'
p9242
sS'condition'
p9243
I1
sS'points'
p9244
I100
ssVmt_A1OK974KXKO6FJ
p9245
(dp9246
S'ip'
p9247
(lp9248
(I0
I0
tp9249
a(V0
p9250
I17
tp9251
a(V0
p9252
I19
tp9253
a(V0
p9254
I-17
tp9255
a(V0
p9256
I19
tp9257
a(V0
p9258
I0
tp9259
a(V0
p9260
I16
tp9261
asS'code'
p9262
S'C0P54R76984'
p9263
sS'condition'
p9264
I0
sS'points'
p9265
I54
ssVmt_TEST1
p9266
(dp9267
S'ip'
p9268
(lp9269
(I0
I0
tp9270
a(V1
p9271
I10
tp9272
a(V2
p9273
I10
tp9274
asS'points'
p9275
I20
sS'condition'
p9276
I1
ssVmt_AQEP3H2QADT47
p9277
(dp9278
S'ip'
p9279
(lp9280
(I0
I0
tp9281
a(V0
p9282
I17
tp9283
a(V0
p9284
I20
tp9285
a(V0
p9286
I-15
tp9287
a(V0
p9288
I20
tp9289
a(V0
p9290
I17
tp9291
a(V0
p9292
I10
tp9293
asS'code'
p9294
S'C1P69R47221'
p9295
sS'condition'
p9296
I1
sS'points'
p9297
I69
ssVmt_A58D0XGXKAX56
p9298
(dp9299
S'ip'
p9300
(lp9301
(I0
I0
tp9302
a(V13
p9303
I-17
tp9304
a(V11
p9305
I-17
tp9306
a(V0
p9307
I-16
tp9308
a(V3
p9309
I17
tp9310
a(V2
p9311
I17
tp9312
a(V0
p9313
I15
tp9314
a(V5
p9315
I-14
tp9316
a(V0
p9317
I-19
tp9318
a(V0
p9319
I-17
tp9320
a(V0
p9321
I16
tp9322
a(V0
p9323
I10
tp9324
a(V0
p9325
I10
tp9326
a(V0
p9327
I-17
tp9328
asS'code'
p9329
S'C0P-1R23856'
p9330
sS'condition'
p9331
I0
sS'points'
p9332
I-32
ssVmt_A12EQIULBHM4HJ
p9333
(dp9334
S'last_claim'
p9335
I0
sS'ip'
p9336
(lp9337
(I0
I0
tp9338
asS'ans'
p9339
(lp9340
sS'allslider'
p9341
(lp9342
sS'time'
p9343
(lp9344
I1526829559
asS'condition'
p9345
I0
ssS'uM8C2KC1E9O'
p9346
(dp9347
S'ip'
p9348
(lp9349
(I0
I0
tp9350
asS'points'
p9351
I0
sS'condition'
p9352
I1
ssVmt_ARVU7VYF2489E
p9353
(dp9354
S'ip'
p9355
(lp9356
(I0
I0
tp9357
a(V1
p9358
I20
tp9359
a(V0
p9360
I20
tp9361
a(V0
p9362
I-20
tp9363
a(V2
p9364
I20
tp9365
a(V0
p9366
I0
tp9367
a(V0
p9368
I17
tp9369
asS'code'
p9370
S'C1P57R79340'
p9371
sS'condition'
p9372
I1
sS'points'
p9373
I57
ssVmt_A1N4AZ1QXPOPXH
p9374
(dp9375
S'ip'
p9376
(lp9377
(I0
I0
tp9378
a(V0
p9379
I20
tp9380
a(V0
p9381
I5
tp9382
a(V0
p9383
I-5
tp9384
a(V0
p9385
I5
tp9386
a(V0
p9387
I0
tp9388
a(V0
p9389
I16
tp9390
asS'code'
p9391
S'C0P41R82676'
p9392
sS'condition'
p9393
I0
sS'points'
p9394
I41
ssS'u2CM7E60YK6'
p9395
(dp9396
S'ip'
p9397
(lp9398
(I0
I0
tp9399
asS'points'
p9400
I0
sS'condition'
p9401
I1
ssVmt_AEI5USUUPBU2G
p9402
(dp9403
S'ip'
p9404
(lp9405
(I0
I0
tp9406
a(V0
p9407
I20
tp9408
a(V0
p9409
I20
tp9410
a(V0
p9411
I-15
tp9412
a(V0
p9413
I20
tp9414
a(V0
p9415
I0
tp9416
a(V0
p9417
I20
tp9418
a(V0
p9419
I-20
tp9420
a(V0
p9421
I-20
tp9422
asS'code'
p9423
S'C1P65R57096'
p9424
sS'condition'
p9425
I1
sS'points'
p9426
I25
ssVmt_A228YSXU6H27QT
p9427
(dp9428
S'ip'
p9429
(lp9430
(I0
I0
tp9431
a(V0
p9432
I20
tp9433
a(V0
p9434
I20
tp9435
a(V0
p9436
I-20
tp9437
a(V0
p9438
I14
tp9439
a(V0
p9440
I0
tp9441
a(V0
p9442
I20
tp9443
asS'code'
p9444
S'C0P54R93201'
p9445
sS'condition'
p9446
I0
sS'points'
p9447
I54
ssS'u68SZNH27IA'
p9448
(dp9449
S'ip'
p9450
(lp9451
(I0
I0
tp9452
asS'points'
p9453
I0
sS'condition'
p9454
I1
ssS'uHSDUNV24SQ'
p9455
(dp9456
S'ip'
p9457
(lp9458
(I0
I0
tp9459
asS'points'
p9460
I0
sS'condition'
p9461
I1
ssS'uDQB7CFDTUS'
p9462
(dp9463
S'ip'
p9464
(lp9465
(I0
I0
tp9466
asS'points'
p9467
I0
sS'condition'
p9468
I1
ssVmt_A1WISFBL3J5Z12
p9469
(dp9470
S'ip'
p9471
(lp9472
(I0
I0
tp9473
a(V17
p9474
I20
tp9475
a(V13
p9476
I16
tp9477
a(V9
p9478
I-19
tp9479
a(V3
p9480
I16
tp9481
a(V0
p9482
I0
tp9483
a(V0
p9484
I18
tp9485
asS'code'
p9486
S'C0P51R25069'
p9487
sS'condition'
p9488
I0
sS'points'
p9489
I51
ssS'uSCGILMHBGH'
p9490
(dp9491
S'ip'
p9492
(lp9493
(I0
I0
tp9494
asS'points'
p9495
I0
sS'condition'
p9496
I1
ssS'uL5ON2F0LFR'
p9497
(dp9498
S'last_claim'
p9499
I25
sS'ip'
p9500
(lp9501
(V0
p9502
I0
tp9503
asS'ans'
p9504
(lp9505
V4
p9506
asS'allslider'
p9507
(lp9508
V{"rep":["0.2","0.2","0.1","0.0","0.2","0.7","0.2","0","0.1","0.1","0.6","0.2","0.3","0.3","0.2"],"stn":["0.8","0.8","0.5","0.5","0.8","0.8","0.0","0.8","0.8","0.8","0.8","0.8","0.5","0.8","0.0"]}
p9509
asS'time'
p9510
(lp9511
I1526677775
asS'condition'
p9512
I1
ssVmt_A1HN4550TIXQBZ
p9513
(dp9514
S'ip'
p9515
(lp9516
(I0
I0
tp9517
a(V0
p9518
I-17
tp9519
a(V0
p9520
I-15
tp9521
a(V0
p9522
I-16
tp9523
a(V0
p9524
I16
tp9525
a(V0
p9526
I19
tp9527
a(V0
p9528
I19
tp9529
asS'code'
p9530
S'C0P6R44732'
p9531
sS'condition'
p9532
I0
sS'points'
p9533
I6
ssVmt_A3D1PLSILELVD
p9534
(dp9535
S'ip'
p9536
(lp9537
(I0
I0
tp9538
a(V0
p9539
I-12
tp9540
a(V0
p9541
I-10
tp9542
a(V0
p9543
I-10
tp9544
a(V0
p9545
I10
tp9546
a(V0
p9547
I10
tp9548
a(V0
p9549
I-10
tp9550
a(V0
p9551
I-10
tp9552
a(V0
p9553
I-10
tp9554
a(V0
p9555
I10
tp9556
a(V0
p9557
I10
tp9558
a(V0
p9559
I10
tp9560
a(V0
p9561
I-10
tp9562
a(V0
p9563
I-10
tp9564
a(V0
p9565
I-10
tp9566
a(V0
p9567
I10
tp9568
a(V0
p9569
I10
tp9570
a(V0
p9571
I10
tp9572
a(V0
p9573
I-10
tp9574
a(V0
p9575
I-10
tp9576
a(V0
p9577
I10
tp9578
a(V0
p9579
I10
tp9580
a(V0
p9581
I-10
tp9582
a(V0
p9583
I-10
tp9584
a(V0
p9585
I-10
tp9586
a(V0
p9587
I-10
tp9588
a(V0
p9589
I10
tp9590
a(V0
p9591
I-10
tp9592
a(V0
p9593
I-10
tp9594
a(V0
p9595
I10
tp9596
asS'code'
p9597
S'C0P-22R27564'
p9598
sS'condition'
p9599
I0
sS'points'
p9600
I-52
ssVmt_ALCOP0S6PFR2O
p9601
(dp9602
S'code'
p9603
S'C1A1145555535R3268'
p9604
sS'last_claim'
p9605
I10
sS'bonus'
p9606
(lp9607
I15
aI15
aI2
aI15
aI15
aI15
aI0
aI0
aI4
aI15
asS'ip'
p9608
(lp9609
(I0
I0
tp9610
a(V8
p9611
I0
tp9612
a(V6
p9613
I0
tp9614
a(V2
p9615
I0
tp9616
a(V4
p9617
I0
tp9618
a(V0
p9619
I0
tp9620
a(V0
p9621
I0
tp9622
a(V0
p9623
I0
tp9624
a(V0
p9625
I0
tp9626
a(V0
p9627
I0
tp9628
a(V0
p9629
I0
tp9630
asS'ans'
p9631
(lp9632
V1
p9633
aV1
p9634
aV4
p9635
aV5
p9636
aV5
p9637
aV5
p9638
aV5
p9639
aV5
p9640
aV3
p9641
aV5
p9642
asS'allslider'
p9643
(lp9644
V{"rep":["0.6","0.4","1","0","0.2","0","0","0","0.6","0.3"],"stn":["-0.6","-0.6","-0.6","0.4","-0.6","0.4","0.4","0","-1","-0.8"]}
p9645
aV{"rep":["0","0","0","0.7","0.9","0.4","0.5","0.6","0","0"],"stn":["-1","0.7","-0.3","-1","-0.4","-1","-0.8","-0.4","0.6","-1"]}
p9646
aV{"rep":["0","0.1","0","0","0.5","0.7","0.2"],"stn":["1","0.8","0.6","1","1","1","0.8"]}
p9647
aV{"rep":["0","0","0","0.9","0.8","0.4","0.5","0"],"stn":["1","0.6","0.4","0.8","0.2","0.8","1","1"]}
p9648
aV{"rep":["0.1","0","0","0.1","0.1","0.3","0.1","0.7"],"stn":["1","0.8","0.8","1","0.8","0.8","0.6","1"]}
p9649
aV{"rep":["0","0","0","0.2","0","0.6","0.5","0","0.8","0"],"stn":["1","1","0.6","1","1","1","1","1","0.8","1"]}
p9650
aV{"rep":["0","0.1","0.3","0.1","0.4","0.4","0.4","0","0.3"],"stn":["1","0.8","0.5","0.4","0.8","-0.6","0.8","0.8","1"]}
p9651
aV{"rep":["1","0","0.1","0.7","0.2","0"],"stn":["0.4","0.8","0.8","0.6","0.4","1"]}
p9652
aV{"rep":["0","0"],"stn":["0.7","1"]}
p9653
aV{"rep":["0.1","0","0.2","0.1","0.3","0.3","0.7","0.5","1","0.7","0","0.2","0","1","1","0.3"],"stn":["0.6","0.8","0.6","1","0.8","0.5","0.5","0","1","1","1","0.5","0.8","0.8","0.3","0.8"]}
p9654
asS'time'
p9655
(lp9656
I1526678093
aI1526678163
aI1526678197
aI1526678246
aI1526678264
aI1526678277
aI1526678292
aI1526678319
aI1526678365
aI1526678410
aI1526678418
asS'total_bonus'
p9657
I96
sS'condition'
p9658
I1
ssVmt_A1F42D4L22K5ND
p9659
(dp9660
S'ip'
p9661
(lp9662
(I0
I0
tp9663
a(V0
p9664
I14
tp9665
a(V0
p9666
I15
tp9667
a(V0
p9668
I9
tp9669
a(V0
p9670
I-4
tp9671
a(V0
p9672
I-13
tp9673
a(V0
p9674
I17
tp9675
asS'code'
p9676
S'C0P38R34875'
p9677
sS'condition'
p9678
V0
p9679
sS'points'
p9680
I38
ssVmt_A1ICXZVLIZM6IF
p9681
(dp9682
S'ip'
p9683
(lp9684
(I0
I0
tp9685
a(V0
p9686
I-9
tp9687
a(V0
p9688
I13
tp9689
a(V0
p9690
I-12
tp9691
a(V0
p9692
I12
tp9693
a(V0
p9694
I0
tp9695
a(V0
p9696
I13
tp9697
a(V0
p9698
I-7
tp9699
a(V0
p9700
I10
tp9701
asS'code'
p9702
S'C0P17R9664'
p9703
sS'condition'
p9704
I0
sS'points'
p9705
I20
ssVmt_A18FSRHD10KF0Y
p9706
(dp9707
S'ip'
p9708
(lp9709
(I0
I0
tp9710
a(V16
p9711
I16
tp9712
a(V12
p9713
I8
tp9714
a(V15
p9715
I5
tp9716
a(V12
p9717
I-8
tp9718
a(V6
p9719
I-7
tp9720
a(V11
p9721
I-6
tp9722
a(V8
p9723
I13
tp9724
a(V1
p9725
I-10
tp9726
a(V2
p9727
I20
tp9728
a(V12
p9729
I-6
tp9730
asS'code'
p9731
S'C1P8R81539'
p9732
sS'condition'
p9733
V1
p9734
sS'points'
p9735
I25
ssVmt_A95RHRMLHT89M
p9736
(dp9737
S'ip'
p9738
(lp9739
(I0
I0
tp9740
a(V13
p9741
I14
tp9742
a(V10
p9743
I-14
tp9744
a(V0
p9745
I6
tp9746
a(V0
p9747
I20
tp9748
a(V0
p9749
I-7
tp9750
a(V0
p9751
I20
tp9752
asS'code'
p9753
S'C1P39R51621'
p9754
sS'condition'
p9755
I1
sS'points'
p9756
I39
ssS'uUVO84G1RNQ'
p9757
(dp9758
S'last_claim'
p9759
I0
sS'ip'
p9760
(lp9761
(I0
I0
tp9762
asS'time'
p9763
(lp9764
I1526659941
asS'allslider'
p9765
(lp9766
sS'ans'
p9767
(lp9768
sS'condition'
p9769
I1
ssVmt_ALYR5CI2SM2JC
p9770
(dp9771
S'ip'
p9772
(lp9773
(I0
I0
tp9774
a(V13
p9775
I20
tp9776
a(V14
p9777
I20
tp9778
a(V7
p9779
I-8
tp9780
a(V7
p9781
I18
tp9782
a(V0
p9783
I0
tp9784
a(V3
p9785
I20
tp9786
asS'code'
p9787
S'C1P70R47237'
p9788
sS'condition'
p9789
V1
p9790
sS'points'
p9791
I70
ssVmt_A1HIQZEC2ER7GS
p9792
(dp9793
S'ip'
p9794
(lp9795
(I0
I0
tp9796
a(V45
p9797
I-10
tp9798
a(V18
p9799
I10
tp9800
a(V15
p9801
I10
tp9802
a(V16
p9803
I10
tp9804
a(V16
p9805
I-10
tp9806
a(V21
p9807
I-10
tp9808
a(I0
I0
tp9809
a(V5
p9810
I-10
tp9811
a(V0
p9812
I10
tp9813
a(V0
p9814
I10
tp9815
a(V4
p9816
I10
tp9817
a(V0
p9818
I10
tp9819
a(V0
p9820
I10
tp9821
asS'code'
p9822
S'C1P0R53597'
p9823
sS'condition'
p9824
V1
p9825
sS'points'
p9826
I40
ssVmt_AAASQIW3J32OL
p9827
(dp9828
S'ip'
p9829
(lp9830
(I0
I0
tp9831
a(V0
p9832
I16
tp9833
a(V0
p9834
I10
tp9835
a(V0
p9836
I-17
tp9837
a(V0
p9838
I-16
tp9839
a(V0
p9840
I0
tp9841
a(V0
p9842
I16
tp9843
asS'code'
p9844
S'C0P9R67881'
p9845
sS'condition'
p9846
I0
sS'points'
p9847
I9
ssVmt_A370SFHTRCD230
p9848
(dp9849
S'ip'
p9850
(lp9851
(I0
I0
tp9852
a(V0
p9853
I13
tp9854
a(V0
p9855
I-12
tp9856
a(V0
p9857
I15
tp9858
a(V0
p9859
I20
tp9860
a(V0
p9861
I-12
tp9862
a(V0
p9863
I-3
tp9864
asS'code'
p9865
S'C0P21R57138'
p9866
sS'condition'
p9867
I0
sS'points'
p9868
I21
ssVmt_A10BH9PYCYUKDJ
p9869
(dp9870
S'ip'
p9871
(lp9872
(I0
I0
tp9873
a(V2
p9874
I-20
tp9875
a(V7
p9876
I19
tp9877
a(V12
p9878
I7
tp9879
a(V18
p9880
I20
tp9881
a(V15
p9882
I0
tp9883
a(V26
p9884
I-4
tp9885
a(V0
p9886
I15
tp9887
asS'code'
p9888
S'C0P22R48514'
p9889
sS'condition'
p9890
I0
sS'points'
p9891
I37
ssVmt_c1
p9892
(dp9893
S'code'
p9894
S'C1A1234512345R9779'
p9895
sS'last_claim'
p9896
I10
sS'bonus'
p9897
(lp9898
I15
aI12
aI4
aI12
aI15
aI0
aI12
aI4
aI2
aI15
asS'ip'
p9899
(lp9900
(I0
I0
tp9901
a(V0
p9902
I0
tp9903
a(V0
p9904
I0
tp9905
a(V0
p9906
I0
tp9907
a(V0
p9908
I0
tp9909
a(V0
p9910
I0
tp9911
a(V0
p9912
I0
tp9913
a(V0
p9914
I0
tp9915
a(V0
p9916
I0
tp9917
a(V0
p9918
I0
tp9919
a(V0
p9920
I0
tp9921
asS'time'
p9922
(lp9923
I1526829051
aI1526829055
aI1526829058
aI1526829061
aI1526829064
aI1526829071
aI1526829076
aI1526829079
aI1526829084
aI1526829087
aI1526829094
asS'allslider'
p9924
(lp9925
V{"rep":["0.2","0.4","0.4","0","0.2","0","0","0","0.6","0.3"],"stn":["-0.6","-0.6","-0.6","0.4","-0.6","0.4","0.4","0","-1","-0.8"]}
p9926
aV{"rep":["0","0","0","0","0","0","0","0","0","0"],"stn":["-1","0.7","-0.3","-1","-0.4","-1","-0.8","-0.4","0.6","-1"]}
p9927
aV{"rep":["0","0.1","0","0","0.2","0","0.2"],"stn":["1","0.8","0.6","1","1","1","0.8"]}
p9928
aV{"rep":["0","0","0","0.6","0.1","0.4","0","0"],"stn":["1","0.6","0.4","0.8","0.2","0.8","1","1"]}
p9929
aV{"rep":["0.1","0","0","0.1","0.1","0.3","0.1","0.7"],"stn":["1","0.8","0.8","1","0.8","0.8","0.6","1"]}
p9930
aV{"rep":["0","0","0","0.2","0","0.6","0.5","0","0.8","0"],"stn":["1","1","0.6","1","1","1","1","1","0.8","1"]}
p9931
aV{"rep":["0","0.1","0.3","0.1","0.4","0.4","0.4","0","0.3"],"stn":["1","0.8","0.5","0.4","0.8","-0.6","0.8","0.8","1"]}
p9932
aV{"rep":["1","0","0.1","0.7","0.2","0"],"stn":["0.4","0.8","0.8","0.6","0.4","1"]}
p9933
aV{"rep":["0","0"],"stn":["0.7","1"]}
p9934
aV{"rep":["0.1","0","0.2","0.1","0.3","0.3","0.7","0.5","1","0.7","0","0.2","0","1","1","0.3"],"stn":["0.6","0.8","0.6","1","0.8","0.5","0.5","0","1","1","1","0.5","0.8","0.8","0.3","0.8"]}
p9935
asS'ans'
p9936
(lp9937
V1
p9938
aV2
p9939
aV3
p9940
aV4
p9941
aV5
p9942
aV1
p9943
aV2
p9944
aV3
p9945
aV4
p9946
aV5
p9947
asS'total_bonus'
p9948
I91
sS'condition'
p9949
I1
ssVmt_A1VPSUPBTA6Q87
p9950
(dp9951
S'ip'
p9952
(lp9953
(I0
I0
tp9954
asS'points'
p9955
I0
sS'condition'
p9956
I1
ssVmt_A4IH4CO046EV3
p9957
(dp9958
S'ip'
p9959
(lp9960
(I0
I0
tp9961
a(V5
p9962
I20
tp9963
a(V25
p9964
I20
tp9965
a(V7
p9966
I-20
tp9967
a(V0
p9968
I20
tp9969
a(V0
p9970
I0
tp9971
a(V0
p9972
I20
tp9973
a(V0
p9974
I-15
tp9975
a(V0
p9976
I-20
tp9977
a(V0
p9978
I20
tp9979
a(V0
p9980
I20
tp9981
a(V0
p9982
I20
tp9983
asS'code'
p9984
S'C1P60R16643'
p9985
sS'condition'
p9986
I1
sS'points'
p9987
I85
ssS'u8Z2J2VLN8W'
p9988
(dp9989
S'last_claim'
p9990
I18
sS'ip'
p9991
(lp9992
(V0
p9993
I0
tp9994
asS'time'
p9995
(lp9996
I1526677697
asS'allslider'
p9997
(lp9998
V{"rep":["0.7","0.1","0","0.9","0.3","0.2","0.2","0.2","0.0"],"stn":["0.0","0.8","0.0","0.8","-0.3","1.0","1.0","1.0","1.0"]}
p9999
asS'ans'
p10000
(lp10001
V4
p10002
asS'condition'
p10003
I1
ssVmt_AK2C9AX5QJWUU
p10004
(dp10005
S'ip'
p10006
(lp10007
(I0
I0
tp10008
a(V15
p10009
I-16
tp10010
a(V11
p10011
I20
tp10012
a(V10
p10013
I-20
tp10014
a(V8
p10015
I10
tp10016
a(V8
p10017
I18
tp10018
a(V10
p10019
I20
tp10020
asS'code'
p10021
S'C1P32R78867'
p10022
sS'condition'
p10023
I1
sS'points'
p10024
I32
ssS'uR12K6WP6U3'
p10025
(dp10026
S'ip'
p10027
(lp10028
(I0
I0
tp10029
asS'points'
p10030
I0
sS'condition'
p10031
I1
ssVmt_AD14EQ9O9JKRI
p10032
(dp10033
S'ip'
p10034
(lp10035
(I0
I0
tp10036
a(V10
p10037
I15
tp10038
a(V2
p10039
I20
tp10040
a(V1
p10041
I-11
tp10042
a(V1
p10043
I-20
tp10044
a(V1
p10045
I10
tp10046
a(V2
p10047
I10
tp10048
asS'code'
p10049
S'C1P24R29208'
p10050
sS'condition'
p10051
I1
sS'points'
p10052
I24
ssVmt_A2IVGLOBFOT67M
p10053
(dp10054
S'code'
p10055
S'C1A2244443415R7980'
p10056
sS'last_claim'
p10057
I10
sS'bonus'
p10058
(lp10059
I12
aI12
aI2
aI12
aI12
aI12
aI4
aI2
aI15
aI15
asS'ip'
p10060
(lp10061
(I0
I0
tp10062
a(V6
p10063
I0
tp10064
a(V8
p10065
I0
tp10066
a(V5
p10067
I0
tp10068
a(V6
p10069
I0
tp10070
a(V9
p10071
I0
tp10072
a(V1
p10073
I0
tp10074
a(V3
p10075
I0
tp10076
a(V0
p10077
I0
tp10078
a(V1
p10079
I0
tp10080
a(V2
p10081
I0
tp10082
asS'time'
p10083
(lp10084
I1526658109
aI1526658223
aI1526658255
aI1526658291
aI1526658323
aI1526658347
aI1526658369
aI1526658399
aI1526658412
aI1526658430
aI1526658450
asS'allslider'
p10085
(lp10086
sS'ans'
p10087
(lp10088
V2
p10089
aV2
p10090
aV4
p10091
aV4
p10092
aV4
p10093
aV4
p10094
aV3
p10095
aV4
p10096
aV1
p10097
aV5
p10098
asS'total_bonus'
p10099
I98
sS'condition'
p10100
I1
ssVmt_A366MTQY0JG0EM
p10101
(dp10102
S'ip'
p10103
(lp10104
(I0
I0
tp10105
a(V2
p10106
I20
tp10107
a(V0
p10108
I-20
tp10109
a(V0
p10110
I-20
tp10111
a(V0
p10112
I20
tp10113
a(V0
p10114
I20
tp10115
a(V0
p10116
I20
tp10117
a(V0
p10118
I0
tp10119
a(V0
p10120
I-20
tp10121
asS'code'
p10122
S'C1P40R3019'
p10123
sS'condition'
p10124
I1
sS'points'
p10125
I20
ssS'uVHWRAW15YD'
p10126
(dp10127
S'ip'
p10128
(lp10129
(I0
I0
tp10130
asS'points'
p10131
I0
sS'condition'
p10132
I1
ssVmt_AD88B3HEDVS19
p10133
(dp10134
S'last_claim'
p10135
I0
sS'ip'
p10136
(lp10137
(I0
I0
tp10138
asS'time'
p10139
(lp10140
I1526658237
asS'allslider'
p10141
(lp10142
sS'ans'
p10143
(lp10144
sS'condition'
p10145
I1
ssVmt_A3T4CNT9D61FGR
p10146
(dp10147
S'ip'
p10148
(lp10149
(I0
I0
tp10150
a(V25
p10151
I10
tp10152
a(V10
p10153
I-10
tp10154
a(V0
p10155
I10
tp10156
a(V0
p10157
I-10
tp10158
a(V5
p10159
I10
tp10160
a(V5
p10161
I10
tp10162
a(V4
p10163
I10
tp10164
a(V2
p10165
I10
tp10166
a(V3
p10167
I10
tp10168
a(V1
p10169
I10
tp10170
a(V1
p10171
I10
tp10172
a(V0
p10173
I10
tp10174
a(V0
p10175
I10
tp10176
a(V0
p10177
I-10
tp10178
a(V0
p10179
I-10
tp10180
a(V0
p10181
I10
tp10182
a(V0
p10183
I10
tp10184
a(V0
p10185
I-10
tp10186
a(V0
p10187
I10
tp10188
a(V0
p10189
I10
tp10190
a(V0
p10191
I-10
tp10192
a(V0
p10193
I10
tp10194
a(V0
p10195
I-10
tp10196
a(V0
p10197
I-10
tp10198
a(V0
p10199
I10
tp10200
a(V0
p10201
I10
tp10202
a(V0
p10203
I-10
tp10204
a(V0
p10205
I-10
tp10206
a(V0
p10207
I-10
tp10208
a(V0
p10209
I-10
tp10210
asS'code'
p10211
S'C0P20R7963'
p10212
sS'condition'
p10213
I0
sS'points'
p10214
I60
ssVmt_A1YXQDZYCKILTT
p10215
(dp10216
S'ip'
p10217
(lp10218
(I0
I0
tp10219
a(V0
p10220
I-20
tp10221
a(V0
p10222
I-20
tp10223
a(V0
p10224
I-7
tp10225
a(V0
p10226
I10
tp10227
a(V0
p10228
I15
tp10229
a(V0
p10230
I16
tp10231
a(V0
p10232
I-16
tp10233
a(V0
p10234
I-10
tp10235
asS'code'
p10236
S'C0P-6R78096'
p10237
sS'condition'
p10238
I0
sS'points'
p10239
I-32
ssS'uIBJIWD92M7'
p10240
(dp10241
S'last_claim'
p10242
I1
sS'ip'
p10243
(lp10244
(V0
p10245
I0
tp10246
asS'time'
p10247
(lp10248
I1526677473
asS'allslider'
p10249
(lp10250
V{"rep":["0.2","0.4","0.4","0","0.2","0","0.0","0.0","0.6","0.3"],"stn":["-0.6","-0.6","-0.6","0.4","-0.6","0.4","0.4","0.0","-1.0","-0.8"]}
p10251
asS'ans'
p10252
(lp10253
V2
p10254
asS'condition'
p10255
I1
ssVmt_A2QE7F8TI3NAGI
p10256
(dp10257
S'ip'
p10258
(lp10259
(I0
I0
tp10260
a(V20
p10261
I-20
tp10262
a(V19
p10263
I-20
tp10264
a(V12
p10265
I-18
tp10266
a(V10
p10267
I20
tp10268
a(V3
p10269
I16
tp10270
a(V12
p10271
I11
tp10272
a(V9
p10273
I-12
tp10274
a(V17
p10275
I-18
tp10276
a(V4
p10277
I-10
tp10278
a(V12
p10279
I-14
tp10280
a(V3
p10281
I14
tp10282
a(V4
p10283
I18
tp10284
a(V16
p10285
I-19
tp10286
a(V0
p10287
I-16
tp10288
a(V0
p10289
I12
tp10290
a(V0
p10291
I15
tp10292
a(V0
p10293
I13
tp10294
a(V0
p10295
I-18
tp10296
a(V0
p10297
I-16
tp10298
a(V0
p10299
I17
tp10300
a(V0
p10301
I-16
tp10302
a(V0
p10303
I10
tp10304
a(V0
p10305
I-16
tp10306
a(V0
p10307
I15
tp10308
a(V0
p10309
I15
tp10310
a(V0
p10311
I15
tp10312
a(V0
p10313
I16
tp10314
a(V0
p10315
I-15
tp10316
a(V0
p10317
I-16
tp10318
a(V0
p10319
I17
tp10320
asS'code'
p10321
S'C1P-11R61605'
p10322
sS'condition'
p10323
I1
sS'points'
p10324
I-20
ssVmt_A326O3VWP8TO8N
p10325
(dp10326
S'ip'
p10327
(lp10328
(I0
I0
tp10329
a(V16
p10330
I19
tp10331
a(V9
p10332
I12
tp10333
a(V6
p10334
I-19
tp10335
a(V0
p10336
I17
tp10337
a(V0
p10338
I0
tp10339
a(V0
p10340
I15
tp10341
asS'code'
p10342
S'C0P44R95117'
p10343
sS'condition'
p10344
V0
p10345
sS'points'
p10346
I44
ssVmt_ABEJPX8HRQFAW
p10347
(dp10348
S'ip'
p10349
(lp10350
(I0
I0
tp10351
a(V27
p10352
I-15
tp10353
a(V20
p10354
I-14
tp10355
a(V15
p10356
I-12
tp10357
a(V16
p10358
I12
tp10359
a(V19
p10360
I-20
tp10361
a(V24
p10362
I12
tp10363
asS'code'
p10364
S'C1P-37R18327'
p10365
sS'condition'
p10366
I1
sS'points'
p10367
I-37
ssVmt_A256FHXGSY0E5D
p10368
(dp10369
S'ip'
p10370
(lp10371
(I0
I0
tp10372
a(V0
p10373
I20
tp10374
a(V0
p10375
I20
tp10376
a(V0
p10377
I-15
tp10378
a(V0
p10379
I20
tp10380
a(V0
p10381
I0
tp10382
a(V0
p10383
I20
tp10384
a(V0
p10385
I-20
tp10386
asS'code'
p10387
S'C0P65R44363'
p10388
sS'condition'
p10389
I0
sS'points'
p10390
I45
ssVmt_A188SHJZPHE8BA
p10391
(dp10392
S'code'
p10393
S'C1A1155555515R1499'
p10394
sS'last_claim'
p10395
I10
sS'bonus'
p10396
(lp10397
I15
aI15
aI0
aI15
aI15
aI15
aI0
aI0
aI15
aI15
asS'ip'
p10398
(lp10399
(I0
I0
tp10400
a(V4
p10401
I0
tp10402
a(V2
p10403
I0
tp10404
a(V0
p10405
I0
tp10406
a(V1
p10407
I0
tp10408
a(V1
p10409
I0
tp10410
a(V3
p10411
I0
tp10412
a(V2
p10413
I0
tp10414
a(V3
p10415
I0
tp10416
a(V2
p10417
I0
tp10418
a(V12
p10419
I0
tp10420
asS'time'
p10421
(lp10422
I1526830623
aI1526830674
aI1526830745
aI1526830851
aI1526830899
aI1526830962
aI1526831034
aI1526831175
aI1526831212
aI1526831283
aI1526831342
asS'allslider'
p10423
(lp10424
V{"rep":["0.2","0.4","0.4","0","0.2","0","-0.6","-0.9","0.3","0.7"],"stn":["-0.6","-0.6","-0.6","0.4","-0.6","0.4","0.4","0","-1","-0.8"]}
p10425
aV{"rep":["0","-1","-1","0.5","0.7","0","0","0","-1","0"],"stn":["-1","0.7","-0.3","-1","-0.4","-1","-0.8","-0.4","0.6","-1"]}
p10426
aV{"rep":["0","0.1","0","0","0.2","0","0.2"],"stn":["1","0.8","0.6","1","1","1","0.8"]}
p10427
aV{"rep":["0","0","0","1","0.1","0.4","0","0"],"stn":["1","0.6","0.4","0.9","0.2","0.8","1","1"]}
p10428
aV{"rep":["0.1","0","0","0.6","0.1","0.3","0.1","0.7"],"stn":["1","0.8","0.8","1","0.8","0.8","0.6","1"]}
p10429
aV{"rep":["0","0","0","0.2","0.9","1","0.5","0","0.8","0"],"stn":["1","1","0.6","1","1","1","1","1","0.8","1"]}
p10430
aV{"rep":["0","0.1","0","-0.1","0.4","0.4","0.4","0","0.3"],"stn":["1","0.8","0.5","0.4","0.8","-0.6","0.8","0.8","1"]}
p10431
aV{"rep":["1","0","0.8","0.7","0.8","0.6"],"stn":["0.4","0.8","0.8","0.6","0.4","1"]}
p10432
aV{"rep":["-0.4","-0.1"],"stn":["0.7","1"]}
p10433
aV{"rep":["0.1","0","0.2","0.1","-0.1","-0.1","0.1","0.1","1","0.7","0","0.4","0.3","0.7","0.7","0.9"],"stn":["0.6","0.8","0.6","1","0.8","0.5","0.5","0","1","1","1","0.5","0.8","0.8","0.3","0.8"]}
p10434
asS'ans'
p10435
(lp10436
V1
p10437
aV1
p10438
aV5
p10439
aV5
p10440
aV5
p10441
aV5
p10442
aV5
p10443
aV5
p10444
aV1
p10445
aV5
p10446
asS'total_bonus'
p10447
I105
sS'condition'
p10448
I1
ssVmt_A1D0JL4MJ7XSGV
p10449
(dp10450
S'code'
p10451
S'C0A1244543315R770'
p10452
sS'last_claim'
p10453
I10
sS'bonus'
p10454
(lp10455
I15
aI12
aI2
aI12
aI15
aI12
aI4
aI4
aI15
aI15
asS'ip'
p10456
(lp10457
(I0
I0
tp10458
a(V0
p10459
I0
tp10460
a(V2
p10461
I0
tp10462
a(V0
p10463
I0
tp10464
a(V0
p10465
I0
tp10466
a(V0
p10467
I0
tp10468
a(V0
p10469
I0
tp10470
a(V0
p10471
I0
tp10472
a(V0
p10473
I0
tp10474
a(V0
p10475
I0
tp10476
a(V0
p10477
I0
tp10478
asS'time'
p10479
(lp10480
I1526677956
aI1526678013
aI1526678041
aI1526678070
aI1526678090
aI1526678101
aI1526678115
aI1526678119
aI1526678125
aI1526678133
aI1526678142
asS'allslider'
p10481
(lp10482
V{"rep":["0.2","0.4","0.4","0","0.2","0","0","0","0.6","0.3"],"stn":["0.7","-0.5","0.3","0.1","0.6","0.6","0.7","0","-0.2","-0.1"]}
p10483
aV{"rep":["0.7","0.7","0.7","0.2","-0.6","-0.5","-0.6","0.4","-0.7","-0.4"],"stn":["-0.3","0.7","0.6","-0.6","0.8","0.1","0.2","0.8","0.9","0.3"]}
p10484
aV{"rep":["0","0.1","0","0","0.2","0","0.2"],"stn":["0.8","0.1","0.1","0.8","0.8","0.9","0.7"]}
p10485
aV{"rep":["0","0","0","0.6","0.1","0.4","0","0"],"stn":["0.4","0.9","0.7","-0.8","0.7","0.8","0.8","0.8"]}
p10486
aV{"rep":["0.1","0","0","0.1","0.1","0.3","0.1","0.7"],"stn":["0.9","0.8","0.9","0.9","0.9","0.9","0.8","0.8"]}
p10487
aV{"rep":["0","0","0","0.2","0","0.6","0.5","0","0.8","0"],"stn":["0.8","0.6","0.8","0.6","0.6","0.8","0.7","0.7","0.7","0.8"]}
p10488
aV{"rep":["0","0.1","0.3","0.1","0.4","0.4","0.4","0","0.3"],"stn":["0.7","0.7","0.9","0.8","0.9","-0.4","0.9","0.7","0.7"]}
p10489
aV{"rep":["1","0","0.1","0.7","0.2","0"],"stn":["0.6","0","0.6","0.7","0.4","0.5"]}
p10490
aV{"rep":["0","0"],"stn":["0.6","0.6"]}
p10491
aV{"rep":["0.1","0","0.2","0.1","0.3","0.3","0.7","0.5","1","0.7","0","0.2","0","1","1","0.3"],"stn":["0.8","0.2","0.9","0.7","0.6","0.1","0.9","0.3","0.9","0.5","0.6","0.7","0.7","0.8","0.6","0.8"]}
p10492
asS'ans'
p10493
(lp10494
V1
p10495
aV2
p10496
aV4
p10497
aV4
p10498
aV5
p10499
aV4
p10500
aV3
p10501
aV3
p10502
aV1
p10503
aV5
p10504
asS'total_bonus'
p10505
I106
sS'condition'
p10506
I0
ssS'u59WY5ZN8YN'
p10507
(dp10508
S'ip'
p10509
(lp10510
(I0
I0
tp10511
asS'points'
p10512
I0
sS'condition'
p10513
I1
ssVmt_A28HB7240OFGEW
p10514
(dp10515
S'ip'
p10516
(lp10517
(I0
I0
tp10518
a(V0
p10519
I16
tp10520
a(V3
p10521
I17
tp10522
a(V0
p10523
I-16
tp10524
a(V0
p10525
I20
tp10526
a(V0
p10527
I19
tp10528
a(V0
p10529
I13
tp10530
a(V0
p10531
I-10
tp10532
asS'code'
p10533
S'C1P69R10203'
p10534
sS'condition'
p10535
V1
p10536
sS'points'
p10537
I59
ssVmt_AJFJ6VXZJKSXD
p10538
(dp10539
S'last_claim'
p10540
I1
sS'ip'
p10541
(lp10542
(I0
I0
tp10543
a(V37
p10544
I0
tp10545
asS'time'
p10546
(lp10547
I1526830432
aI1526830630
asS'allslider'
p10548
(lp10549
V{"rep":["1","-1","1","1","0.4","1","-0.9","0.9","1","0.9"],"stn":["1","-1","1","0.8","0.6","1","0.7","-1","0.7","1"]}
p10550
asS'ans'
p10551
(lp10552
V5
p10553
asS'condition'
p10554
I0
ssVmt_A3C0NQ2IP5FTZQ
p10555
(dp10556
S'code'
p10557
S'C1A1115551115R3477'
p10558
sS'last_claim'
p10559
I10
sS'bonus'
p10560
(lp10561
I15
aI15
aI15
aI15
aI15
aI15
aI15
aI15
aI15
aI15
asS'ip'
p10562
(lp10563
(I0
I0
tp10564
a(V11
p10565
I0
tp10566
a(V3
p10567
I0
tp10568
a(V0
p10569
I0
tp10570
a(V0
p10571
I0
tp10572
a(V0
p10573
I0
tp10574
a(V0
p10575
I0
tp10576
a(V0
p10577
I0
tp10578
a(V0
p10579
I0
tp10580
a(V0
p10581
I0
tp10582
a(V0
p10583
I0
tp10584
asS'time'
p10585
(lp10586
I1526829283
aI1526829360
aI1526829389
aI1526829416
aI1526829438
aI1526829457
aI1526829473
aI1526829503
aI1526829515
aI1526829530
aI1526829541
asS'allslider'
p10587
(lp10588
V{"rep":["0.2","0.4","0.4","0","0.2","0","0","0","0.6","1"],"stn":["1","0.5","1","-0.3","-0.1","-0.4","-0.1","-0.2","0.7","1"]}
p10589
aV{"rep":["0","0","0","0","0","0","0","0","0","0"],"stn":["0","0.6","-0.3","-1","-0.4","-1","-0.8","-0.4","0.6","-1"]}
p10590
aV{"rep":["0","0.1","0","0","0.2","0","0.2"],"stn":["1","0.8","0.6","1","1","1","0.8"]}
p10591
aV{"rep":["0","0","0","0.6","0.1","0.4","0","0"],"stn":["1","0.6","0.4","0.8","0.2","0.8","1","1"]}
p10592
aV{"rep":["0.1","0","0","0.1","0.1","0.3","0.1","0.7"],"stn":["1","0.8","0.8","1","0.8","0.8","0.6","1"]}
p10593
aV{"rep":["0","0","0","0.2","0","0.6","0.5","0","0.8","0"],"stn":["1","1","0.6","1","1","1","1","1","0.8","1"]}
p10594
aV{"rep":["0","0.1","0.3","0.1","0.4","0.4","0.4","0","0.3"],"stn":["1","0.8","0.5","0.4","0.8","-0.6","0.8","0.8","1"]}
p10595
aV{"rep":["1","0","0.1","0.7","0.2","0"],"stn":["0.4","0.8","0.8","0.6","0.4","1"]}
p10596
aV{"rep":["0","0"],"stn":["0.7","1"]}
p10597
aV{"rep":["0.1","0","0.2","0.1","0.3","0.3","0.7","0.5","1","0.7","0","0.2","0","1","1","0.3"],"stn":["0.6","0.8","0.6","1","0.8","0.5","0.5","0","1","1","1","0.5","0.8","0.8","0.3","0.8"]}
p10598
asS'ans'
p10599
(lp10600
V1
p10601
aV1
p10602
aV1
p10603
aV5
p10604
aV5
p10605
aV5
p10606
aV1
p10607
aV1
p10608
aV1
p10609
aV5
p10610
asS'total_bonus'
p10611
I150
sS'condition'
p10612
I1
ssVmt_A2LMQ4497NMK3S
p10613
(dp10614
S'ip'
p10615
(lp10616
(I0
I0
tp10617
a(V6
p10618
I17
tp10619
a(V4
p10620
I20
tp10621
a(V2
p10622
I-14
tp10623
a(V6
p10624
I16
tp10625
a(V0
p10626
I0
tp10627
a(V1
p10628
I19
tp10629
asS'code'
p10630
S'C1P58R56094'
p10631
sS'condition'
p10632
I1
sS'points'
p10633
I58
ssVmt_A7JS3BROKU6S1
p10634
(dp10635
S'ip'
p10636
(lp10637
(I0
I0
tp10638
a(V0
p10639
I18
tp10640
a(V7
p10641
I19
tp10642
a(V0
p10643
I-20
tp10644
a(V0
p10645
I15
tp10646
a(V0
p10647
I0
tp10648
a(V0
p10649
I19
tp10650
asS'code'
p10651
S'C1P51R53487'
p10652
sS'condition'
p10653
I1
sS'points'
p10654
I51
ssVmt_A1ZT30BGR3266K
p10655
(dp10656
S'ip'
p10657
(lp10658
(I0
I0
tp10659
a(V0
p10660
I-12
tp10661
a(V0
p10662
I15
tp10663
a(V0
p10664
I-7
tp10665
a(V0
p10666
I20
tp10667
a(V0
p10668
I20
tp10669
a(V0
p10670
I20
tp10671
asS'code'
p10672
S'C1P56R90093'
p10673
sS'condition'
p10674
I1
sS'points'
p10675
I56
ssS'uNQRSV92FML'
p10676
(dp10677
S'last_claim'
p10678
I8
sS'ip'
p10679
(lp10680
(V0
p10681
I0
tp10682
asS'ans'
p10683
(lp10684
V4
p10685
asS'allslider'
p10686
(lp10687
V{"rep":["1","0","0.1","0.7","0.2","0.0"],"stn":["0.4","0.8","0.8","0.6","0.4","1.0"]}
p10688
asS'time'
p10689
(lp10690
I1526677570
asS'condition'
p10691
I1
ssVmt_frd367
p10692
(dp10693
S'ip'
p10694
(lp10695
(I0
I0
tp10696
a(V11
p10697
I17
tp10698
a(V13
p10699
I14
tp10700
a(V11
p10701
I-20
tp10702
a(V8
p10703
I20
tp10704
a(V0
p10705
I0
tp10706
a(V12
p10707
I15
tp10708
asS'code'
p10709
S'C1P46R69387'
p10710
sS'condition'
p10711
V1
p10712
sS'points'
p10713
I46
ssS'uY22IRJHVD2'
p10714
(dp10715
S'ip'
p10716
(lp10717
(I0
I0
tp10718
asS'points'
p10719
I0
sS'condition'
p10720
I1
ssS'uH7Q6ZF1BFG'
p10721
(dp10722
S'last_claim'
p10723
I21
sS'ip'
p10724
(lp10725
(V0
p10726
I0
tp10727
asS'time'
p10728
(lp10729
I1526677722
asS'allslider'
p10730
(lp10731
V{"rep":["0.3","0.3","0","0.3","0","0.1","0.2","1","0.1"],"stn":["-0.4","0.2","-0.8","-0.6","0.8","1.0","-0.6","-0.6","0.2"]}
p10732
asS'ans'
p10733
(lp10734
V1
p10735
asS'condition'
p10736
I1
ssS'uI7YDXFQWJ4'
p10737
(dp10738
S'ip'
p10739
(lp10740
(I0
I0
tp10741
asS'points'
p10742
I0
sS'condition'
p10743
I1
ssS'u81NB8SN6SV'
p10744
(dp10745
S'ip'
p10746
(lp10747
(I0
I0
tp10748
asS'points'
p10749
I0
sS'condition'
p10750
I1
ssS'uDW0BFDMFM9'
p10751
(dp10752
S'ip'
p10753
(lp10754
(I0
I0
tp10755
asS'points'
p10756
I0
sS'condition'
p10757
I1
ss.